(lp0
V\u4ea4\u53c9\u4fe1\u606f\u9662
p1
aV\u751f\u547d\u5b66\u9662
p2
aV\u7535\u5b50\u7cfb
p3
aV\u6570\u5b66\u7cfb
p4
aV\u5916\u6587\u7cfb
p5
aV\u8ba1\u7b97\u673a\u7cfb
p6
aV\u6c34\u5229\u7cfb
p7
aV\u5316\u5b66\u7cfb
p8
aV\u56fe\u4e66\u9986
p9
aV\u4eba\u6587\u5b66\u9662
p10
aV\u8f6f\u4ef6\u5b66\u9662
p11
aV\u673a\u68b0\u7cfb
p12
aV\u6838\u7814\u9662
p13
aV\u7cbe\u4eea\u7cfb
p14
aV\u5efa\u7b51\u5b66\u9662
p15
aV\u571f\u6728\u7cfb
p16
aV\u6c7d\u8f66\u7cfb
p17
aV\u81ea\u52a8\u5316\u7cfb
p18
aV\u7535\u673a\u7cfb
p19
aV\u9ad8\u7814\u9662
p20
aV\u516c\u7ba1\u5b66\u9662
p21
aV\u793e\u79d1\u5b66\u9662
p22
aV\u6cd5\u5b66\u9662
p23
aV\u533b\u5b66\u9662
p24
aV\u73af\u5883\u5b66\u9662
p25
aV\u70ed\u80fd\u7cfb
p26
aV\u5fae\u7eb3\u7535\u5b50\u7cfb
p27
aV\u822a\u9662
p28
aV\u5de5\u7269\u7cfb
p29
aV\u5316\u5de5\u7cfb
p30
aV\u7269\u7406\u7cfb
p31
aV\u7ecf\u7ba1\u5b66\u9662
p32
aV\u4e2d\u6587\u7cfb
p33
aV\u5730\u7403\u79d1\u5b66\u4e2d\u5fc3
p34
aV\u5de5\u4e1a\u5de5\u7a0b\u7cfb
p35
aV\u6750\u6599\u5b66\u9662
p36
aV\u7f8e\u672f\u5b66\u9662
p37
aV\u6559\u7814\u9662
p38
aV\u5efa\u7ba1\u7cfb
p39
aV\u65b0\u95fb\u5b66\u9662
p40
aV\u751f\u533b\u7cfb
p41
aV\u5730\u5b66\u7cfb
p42
aV\u9a6c\u514b\u601d\u4e3b\u4e49\u5b66\u9662
p43
aV\u91d1\u878d\u5b66\u9662
p44
aV\u836f\u5b66\u9662
p45
aV\u80fd\u52a8\u7cfb
p46
aV\u6e05\u534e-\u4f2f\u514b\u5229\u6df1\u5733\u5b66\u9662
p47
aV\u5fae\u7535\u5b50\u6240
p48
aV\u8ba1\u7b97\u4e2d\u5fc3
p49
aV\u5168\u7403\u521b\u65b0\u5b66\u9662
p50
aV\u673a\u68b0\u5b66\u9662
p51
aV\u82cf\u4e16\u6c11\u4e66\u9662
p52
aV\u65b0\u96c5\u4e66\u9662
p53
aV\u7ee7\u6559\u5b66\u9662
p54
aV\u4ea4\u53c9\u4fe1\u606f\u7814\u7a76\u9662
p55
aV\u8bbe\u8ba1\u9662
p56
aV\u6821\u533b\u9662
p57
aV\u6b63\u5927\u516c\u53f8
p58
a.