(lp0
(V\u793e\u79d1\u5b66\u9662
p1
F0.06120333745060416
tp2
a(V\u5efa\u7b51\u5b66\u9662
p3
F0.05017547033364205
tp4
a(V\u533b\u5b66\u9662
p5
F0.037905954863053724
tp6
a(V\u6750\u6599\u5b66\u9662
p7
F0.03211931036685692
tp8
a(V\u5de5\u7269\u7cfb
p9
F0.028037988947816114
tp10
a(V\u7f8e\u672f\u5b66\u9662
p11
F0.027603068833476838
tp12
a(V\u6c34\u5229\u7cfb
p13
F0.026718083566146005
tp14
a(V\u6838\u7814\u9662
p15
F0.02608682748018045
tp16
a(V\u5efa\u7ba1\u7cfb
p17
F0.025854068385025283
tp18
a(V\u571f\u6728\u7cfb
p19
F0.02464492881854454
tp20
a(V\u5916\u6587\u7cfb
p21
F0.024278822038448306
tp22
a(V\u516c\u7ba1\u5b66\u9662
p23
F0.02276744696340213
tp24
a(V\u4eba\u6587\u5b66\u9662
p25
F0.021866103756902344
tp26
a(V\u6c7d\u8f66\u7cfb
p27
F0.021331196375578353
tp28
a(V\u9a6c\u514b\u601d\u4e3b\u4e49\u5b66\u9662
p29
F0.021161067674277653
tp30
a(V\u5316\u5de5\u7cfb
p31
F0.02106593605135101
tp32
a(V\u7269\u7406\u7cfb
p33
F0.02017937061792641
tp34
a(S'\xe4\xba\xa4\xe5\x8f\x89\xe4\xbf\xa1\xe6\x81\xaf\xe7\xa0\x94\xe7\xa9\xb6\xe9\x99\xa2'
p35
F0.020170034015206905
tp36
a(V\u5fae\u7535\u5b50\u6240
p37
F0.020119023851865245
tp38
a(V\u6559\u7814\u9662
p39
F0.019395306535174975
tp40
a(V\u751f\u547d\u5b66\u9662
p41
F0.018894113539991337
tp42
a(V\u6cd5\u5b66\u9662
p43
F0.018879176977463413
tp44
a(V\u8f6f\u4ef6\u5b66\u9662
p45
F0.01825577015044078
tp46
a(V\u73af\u5883\u5b66\u9662
p47
F0.01793624153260866
tp48
a(V\u6570\u5b66\u7cfb
p49
F0.017664764151252215
tp50
a(V\u7ecf\u7ba1\u5b66\u9662
p51
F0.01752124446996479
tp52
a(V\u91d1\u878d\u5b66\u9662
p53
F0.016645396796388674
tp54
a(V\u822a\u9662
p55
F0.016187940671406817
tp56
a(V\u4e2d\u6587\u7cfb
p57
F0.01590620125590469
tp58
a(V\u5316\u5b66\u7cfb
p59
F0.01568664422817097
tp60
a(S'\xe8\xae\xa1\xe7\xae\x97\xe6\x9c\xba\xe7\xb3\xbb'
p61
F0.015246088582804566
tp62
a(V\u7535\u5b50\u7cfb
p63
F0.014946983978699922
tp64
a(V\u673a\u68b0\u5b66\u9662
p65
F0.014589984555183885
tp66
a(V\u673a\u68b0\u7cfb
p67
F0.014476590301496768
tp68
a(V\u5168\u7403\u521b\u65b0\u5b66\u9662
p69
F0.014400122941449708
tp70
a(V\u5fae\u7eb3\u7535\u5b50\u7cfb
p71
F0.014373793208936414
tp72
a(V\u7535\u673a\u7cfb
p73
F0.014091259854139258
tp74
a(V\u65b0\u95fb\u5b66\u9662
p75
F0.013940694904662907
tp76
a(V\u70ed\u80fd\u7cfb
p77
F0.01386530772219749
tp78
a(V\u6e05\u534e-\u4f2f\u514b\u5229\u6df1\u5733\u5b66\u9662
p79
F0.013404724124492244
tp80
a(V\u836f\u5b66\u9662
p81
F0.013331639635181296
tp82
a(V\u9ad8\u7814\u9662
p83
F0.012984228085368291
tp84
a(V\u5de5\u4e1a\u5de5\u7a0b\u7cfb
p85
F0.012888609920275238
tp86
a(V\u81ea\u52a8\u5316\u7cfb
p87
F0.01259996984890335
tp88
a(V\u751f\u533b\u7cfb
p89
F0.012532257933387093
tp90
a(V\u7cbe\u4eea\u7cfb
p91
F0.011765122127545422
tp92
a(V\u5730\u5b66\u7cfb
p93
F0.011668122810400607
tp94
a(V\u65b0\u96c5\u4e66\u9662
p95
F0.011373700736327598
tp96
a(V\u8bbe\u8ba1\u9662
p97
F0.01125215127646897
tp98
a(V\u80fd\u52a8\u7cfb
p99
F0.010006144913574088
tp100
a(V\u82cf\u4e16\u6c11\u4e66\u9662
p101
F0.01000166183943313
tp102
a.