(lp0
V\u751f\u547d\u5b66\u9662
p1
aV\u7535\u5b50\u7cfb
p2
aV\u6570\u5b66\u7cfb
p3
aV\u5916\u6587\u7cfb
p4
aV\u8ba1\u7b97\u673a\u7cfb
p5
aV\u6c34\u5229\u7cfb
p6
aV\u5316\u5b66\u7cfb
p7
aV\u4eba\u6587\u5b66\u9662
p8
aV\u8f6f\u4ef6\u5b66\u9662
p9
aV\u673a\u68b0\u7cfb
p10
aV\u6838\u7814\u9662
p11
aV\u7cbe\u4eea\u7cfb
p12
aV\u5efa\u7b51\u5b66\u9662
p13
aV\u571f\u6728\u7cfb
p14
aV\u6c7d\u8f66\u7cfb
p15
aV\u81ea\u52a8\u5316\u7cfb
p16
aV\u7535\u673a\u7cfb
p17
aV\u516c\u7ba1\u5b66\u9662
p18
aV\u793e\u79d1\u5b66\u9662
p19
aV\u6cd5\u5b66\u9662
p20
aV\u533b\u5b66\u9662
p21
aV\u73af\u5883\u5b66\u9662
p22
aV\u70ed\u80fd\u7cfb
p23
aV\u5fae\u7eb3\u7535\u5b50\u7cfb
p24
aV\u822a\u9662
p25
aV\u5de5\u7269\u7cfb
p26
aV\u5316\u5de5\u7cfb
p27
aV\u7269\u7406\u7cfb
p28
aV\u7ecf\u7ba1\u5b66\u9662
p29
aV\u5de5\u4e1a\u5de5\u7a0b\u7cfb
p30
aV\u6750\u6599\u5b66\u9662
p31
aV\u7f8e\u672f\u5b66\u9662
p32
aV\u6559\u7814\u9662
p33
aV\u65b0\u95fb\u5b66\u9662
p34
aV\u5730\u5b66\u7cfb
p35
aV\u9a6c\u514b\u601d\u4e3b\u4e49\u5b66\u9662
p36
aV\u836f\u5b66\u9662
p37
aV\u80fd\u52a8\u7cfb
p38
aV\u65b0\u96c5\u4e66\u9662
p39
aV\u4ea4\u53c9\u4fe1\u606f\u7814\u7a76\u9662
p40
a.