(lp0
(S'\xe4\xba\xba\xe6\x96\x87\xe5\xad\xa6\xe9\x99\xa2'
p1
F0.07224525406243991
tp2
a(V\u571f\u6728\u7cfb
p3
F0.06457915069096921
tp4
a(V\u793e\u79d1\u5b66\u9662
p5
F0.05778052386538458
tp6
a(V\u7ecf\u7ba1\u5b66\u9662
p7
F0.04140519041092739
tp8
a(V\u7535\u5b50\u7cfb
p9
F0.03888468075378135
tp10
a(V\u5316\u5b66\u7cfb
p11
F0.038275249273203915
tp12
a(V\u5de5\u4e1a\u5de5\u7a0b\u7cfb
p13
F0.0361672161772387
tp14
a(V\u8f6f\u4ef6\u5b66\u9662
p15
F0.034059313413351756
tp16
a(V\u9a6c\u514b\u601d\u4e3b\u4e49\u5b66\u9662
p17
F0.0331022778089712
tp18
a(V\u6559\u7814\u9662
p19
F0.030548297785782594
tp20
a(V\u6cd5\u5b66\u9662
p21
F0.029635347148788113
tp22
a(V\u6838\u7814\u9662
p23
F0.029230745029974272
tp24
a(S'\xe5\x8c\xbb\xe5\xad\xa6\xe9\x99\xa2'
p25
F0.02839803349773749
tp26
a(V\u8bbe\u8ba1\u9662
p27
F0.028182362628958988
tp28
a(V\u81ea\u52a8\u5316\u7cfb
p29
F0.026549925831132363
tp30
a(V\u65b0\u95fb\u5b66\u9662
p31
F0.025963516045267497
tp32
a(V\u751f\u547d\u5b66\u9662
p33
F0.025351562282379666
tp34
a(S'\xe8\xae\xa1\xe7\xae\x97\xe6\x9c\xba\xe7\xb3\xbb'
p35
F0.023320369853735104
tp36
a(V\u822a\u9662
p37
F0.020906578767131895
tp38
a(V\u7f8e\u672f\u5b66\u9662
p39
F0.019759044902086204
tp40
a(V\u5efa\u7b51\u5b66\u9662
p41
F0.01956186574805943
tp42
a(V\u7269\u7406\u7cfb
p43
F0.018887139356984543
tp44
a(V\u5316\u5de5\u7cfb
p45
F0.018800309263184642
tp46
a(V\u7535\u673a\u7cfb
p47
F0.018114548643719124
tp48
a(V\u70ed\u80fd\u7cfb
p49
F0.017895679435848327
tp50
a(V\u6c7d\u8f66\u7cfb
p51
F0.017005801928907615
tp52
a(S'\xe6\x9c\xba\xe6\xa2\xb0\xe5\xad\xa6\xe9\x99\xa2'
p53
F0.016266383545100398
tp54
a(V\u73af\u5883\u5b66\u9662
p55
F0.015910139148101264
tp56
a(V\u5de5\u7269\u7cfb
p57
F0.015750720145181175
tp58
a(V\u5916\u6587\u7cfb
p59
F0.015140623715728597
tp60
a(V\u6750\u6599\u5b66\u9662
p61
F0.015065331002012664
tp62
a(V\u6c34\u5229\u7cfb
p63
F0.014235114345951053
tp64
a(V\u7cbe\u4eea\u7cfb
p65
F0.013459673843995915
tp66
a(V\u516c\u7ba1\u5b66\u9662
p67
F0.012902730042901598
tp68
a(V\u6570\u5b66\u7cfb
p69
F0.01075345086846784
tp70
a(V\u5168\u7403\u521b\u65b0\u5b66\u9662
p71
F0.01013015785679382
tp72
a(S'\xe4\xba\xa4\xe5\x8f\x89\xe4\xbf\xa1\xe6\x81\xaf\xe7\xa0\x94\xe7\xa9\xb6\xe9\x99\xa2'
p73
F0.009664639165238596
tp74
a(S'\xe5\xbe\xae\xe7\xba\xb3\xe7\x94\xb5\xe5\xad\x90\xe7\xb3\xbb'
p75
F0.007496796023288392
tp76
a(V\u9ad8\u7814\u9662
p77
F0.004867527814504739
tp78
a(V\u5730\u5b66\u7cfb
p79
F0.004677356288099961
tp80
a(V\u91d1\u878d\u5b66\u9662
p81
F0.004326895574656981
tp82
a(V\u836f\u5b66\u9662
p83
F0.004019766667210627
tp84
a(V\u65b0\u96c5\u4e66\u9662
p85
F0.0039215686274509855
tp86
a(V\u6e05\u534e-\u4f2f\u514b\u5229\u6df1\u5733\u5b66\u9662
p87
F0.003467807386036145
tp88
a(V\u82cf\u4e16\u6c11\u4e66\u9662
p89
F0.003333333333333334
tp90
a.