(lp0
(V\u8bbe\u8ba1\u9662
p1
F0.026139702089222516
tp2
a(V\u4eba\u6587\u5b66\u9662
p3
F0.024636092401593267
tp4
a(V\u81ea\u52a8\u5316\u7cfb
p5
F0.024372253718522453
tp6
a(V\u70ed\u80fd\u7cfb
p7
F0.023195022033767342
tp8
a(V\u6c34\u5229\u7cfb
p9
F0.02312588070177392
tp10
a(V\u571f\u6728\u7cfb
p11
F0.022992569982034437
tp12
a(V\u7535\u5b50\u7cfb
p13
F0.02298315780025114
tp14
a(V\u7f8e\u672f\u5b66\u9662
p15
F0.022516268774714958
tp16
a(V\u793e\u79d1\u5b66\u9662
p17
F0.02183957748255746
tp18
a(V\u5316\u5b66\u7cfb
p19
F0.02163885348428607
tp20
a(V\u751f\u547d\u5b66\u9662
p21
F0.02148908377442529
tp22
a(V\u8f6f\u4ef6\u5b66\u9662
p23
F0.021293763703287276
tp24
a(V\u5de5\u4e1a\u5de5\u7a0b\u7cfb
p25
F0.02123943457618491
tp26
a(V\u6cd5\u5b66\u9662
p27
F0.021213728047261352
tp28
a(V\u73af\u5883\u5b66\u9662
p29
F0.021054133047722176
tp30
a(V\u5de5\u7269\u7cfb
p31
F0.020749811684247926
tp32
a(V\u6838\u7814\u9662
p33
F0.02072451572975129
tp34
a(V\u7269\u7406\u7cfb
p35
F0.020648108278190563
tp36
a(S'\xe8\xae\xa1\xe7\xae\x97\xe6\x9c\xba\xe7\xb3\xbb'
p37
F0.02058932787234491
tp38
a(V\u5316\u5de5\u7cfb
p39
F0.020522797922288186
tp40
a(V\u6750\u6599\u5b66\u9662
p41
F0.0204619701491896
tp42
a(V\u7ecf\u7ba1\u5b66\u9662
p43
F0.020452226918186007
tp44
a(V\u6570\u5b66\u7cfb
p45
F0.020450016152588454
tp46
a(V\u6559\u7814\u9662
p47
F0.020436078138990378
tp48
a(V\u673a\u68b0\u7cfb
p49
F0.020423267992388135
tp50
a(V\u65b0\u95fb\u5b66\u9662
p51
F0.02042326799238813
tp52
a(V\u5916\u6587\u7cfb
p53
F0.020289565003048182
tp54
a(V\u7cbe\u4eea\u7cfb
p55
F0.020218476558813935
tp56
a(V\u5efa\u7b51\u5b66\u9662
p57
F0.02010513117487278
tp58
a(V\u822a\u9662
p59
F0.01985517270407952
tp60
a(V\u9a6c\u514b\u601d\u4e3b\u4e49\u5b66\u9662
p61
F0.01983611400338105
tp62
a(V\u7535\u673a\u7cfb
p63
F0.019796600985195364
tp64
a(V\u533b\u5b66\u9662
p65
F0.01962240414989976
tp66
a(V\u673a\u68b0\u5b66\u9662
p67
F0.019566225480657735
tp68
a(V\u6c7d\u8f66\u7cfb
p69
F0.019375867322181314
tp70
a(V\u5fae\u7eb3\u7535\u5b50\u7cfb
p71
F0.019274860405124054
tp72
a(V\u516c\u7ba1\u5b66\u9662
p73
F0.018964433434222182
tp74
a(V\u5efa\u7ba1\u7cfb
p75
F0.018926099402212945
tp76
a(S'\xe4\xba\xa4\xe5\x8f\x89\xe4\xbf\xa1\xe6\x81\xaf\xe7\xa0\x94\xe7\xa9\xb6\xe9\x99\xa2'
p77
F0.01859221689855298
tp78
a(V\u4e2d\u6587\u7cfb
p79
F0.017262147651170612
tp80
a(V\u751f\u533b\u7cfb
p81
F0.0159469840430934
tp82
a(V\u5168\u7403\u521b\u65b0\u5b66\u9662
p83
F0.012557884065422706
tp84
a(V\u91d1\u878d\u5b66\u9662
p85
F0.011750354047840384
tp86
a(V\u6e05\u534e-\u4f2f\u514b\u5229\u6df1\u5733\u5b66\u9662
p87
F0.011674632067237678
tp88
a(V\u9ad8\u7814\u9662
p89
F0.011388531741292588
tp90
a(V\u836f\u5b66\u9662
p91
F0.011294311913953388
tp92
a(V\u5730\u5b66\u7cfb
p93
F0.01099616745202138
tp94
a(V\u5fae\u7535\u5b50\u6240
p95
F0.01075285183484979
tp96
a(V\u65b0\u96c5\u4e66\u9662
p97
F0.009738283627651938
tp98
a(V\u8ba1\u7b97\u673a\u7cfb
p99
F0.009433962264177687
tp100
a(V\u82cf\u4e16\u6c11\u4e66\u9662
p101
F0.009433962264177687
tp102
a(V\u7ee7\u6559\u5b66\u9662
p103
F0.009433962264177687
tp104
a(V\u7f51\u7edc\u7814\u7a76\u9662
p105
F0.009433962264177687
tp106
a(V\u4ea4\u53c9\u4fe1\u606f\u7814\u7a76\u9662
p107
F0.009433962264177687
tp108
a(V\u80fd\u52a8\u7cfb
p109
F0.009433962264177687
tp110
a.