(lp0
(V\u4eba\u6587\u5b66\u9662
p1
F0.0466720999899591
tp2
a(V\u571f\u6728\u7cfb
p3
F0.036434370038035624
tp4
a(V\u793e\u79d1\u5b66\u9662
p5
F0.03331996942304879
tp6
a(V\u7535\u5b50\u7cfb
p7
F0.03154526404344017
tp8
a(V\u7ecf\u7ba1\u5b66\u9662
p9
F0.028451862313788056
tp10
a(V\u5316\u5b66\u7cfb
p11
F0.027943359169143426
tp12
a(V\u81ea\u52a8\u5316\u7cfb
p13
F0.02617670676562972
tp14
a(V\u8f6f\u4ef6\u5b66\u9662
p15
F0.025114454387408235
tp16
a(V\u5de5\u4e1a\u5de5\u7a0b\u7cfb
p17
F0.024904676276227816
tp18
a(V\u6cd5\u5b66\u9662
p19
F0.02408997264382791
tp20
a(V\u9a6c\u514b\u601d\u4e3b\u4e49\u5b66\u9662
p21
F0.023725330728723217
tp22
a(V\u6838\u7814\u9662
p23
F0.023470112893258947
tp24
a(V\u6559\u7814\u9662
p25
F0.023266909939735743
tp26
a(V\u533b\u5b66\u9662
p27
F0.02304772915369184
tp28
a(V\u751f\u547d\u5b66\u9662
p29
F0.02298458071104819
tp30
a(V\u8bbe\u8ba1\u9662
p31
F0.021848164503167324
tp32
a(V\u65b0\u95fb\u5b66\u9662
p33
F0.021609987417462166
tp34
a(V\u70ed\u80fd\u7cfb
p35
F0.02155421081481449
tp36
a(S'\xe8\xae\xa1\xe7\xae\x97\xe6\x9c\xba\xe7\xb3\xbb'
p37
F0.021108689839439792
tp38
a(V\u822a\u9662
p39
F0.02042594247395413
tp40
a(V\u7f8e\u672f\u5b66\u9662
p41
F0.01973657407033494
tp42
a(V\u5efa\u7b51\u5b66\u9662
p43
F0.019463391830152287
tp44
a(V\u7269\u7406\u7cfb
p45
F0.01929349477710891
tp46
a(V\u6c7d\u8f66\u7cfb
p47
F0.01916326579789768
tp48
a(V\u5316\u5de5\u7cfb
p49
F0.018492013969860232
tp50
a(V\u7535\u673a\u7cfb
p51
F0.018372663674606514
tp52
a(V\u73af\u5883\u5b66\u9662
p53
F0.018212002251507195
tp54
a(V\u673a\u68b0\u7cfb
p55
F0.018179760232330554
tp56
a(V\u5efa\u7ba1\u7cfb
p57
F0.017893570641079
tp58
a(V\u5de5\u7269\u7cfb
p59
F0.017616354279537786
tp60
a(V\u5916\u6587\u7cfb
p61
F0.01757243763400289
tp62
a(V\u6c34\u5229\u7cfb
p63
F0.017547068537727417
tp64
a(V\u6750\u6599\u5b66\u9662
p65
F0.017349190880297582
tp66
a(V\u516c\u7ba1\u5b66\u9662
p67
F0.01642071210973461
tp68
a(V\u7cbe\u4eea\u7cfb
p69
F0.016389196569003235
tp70
a(V\u5168\u7403\u521b\u65b0\u5b66\u9662
p71
F0.016171705476230678
tp72
a(V\u6570\u5b66\u7cfb
p73
F0.01542976899187499
tp74
a(S'\xe4\xba\xa4\xe5\x8f\x89\xe4\xbf\xa1\xe6\x81\xaf\xe7\xa0\x94\xe7\xa9\xb6\xe9\x99\xa2'
p75
F0.01513145287886312
tp76
a(V\u5fae\u7eb3\u7535\u5b50\u7cfb
p77
F0.01452907624251976
tp78
a(V\u4e2d\u6587\u7cfb
p79
F0.014399066264014104
tp80
a(V\u751f\u533b\u7cfb
p81
F0.013391880232331819
tp82
a(V\u5fae\u7535\u5b50\u6240
p83
F0.01269242278289966
tp84
a(V\u673a\u68b0\u5b66\u9662
p85
F0.012523066765914482
tp86
a(V\u9ad8\u7814\u9662
p87
F0.011972679177219345
tp88
a(V\u5730\u5b66\u7cfb
p89
F0.011775508501167443
tp90
a(V\u91d1\u878d\u5b66\u9662
p91
F0.011237973168353867
tp92
a(V\u836f\u5b66\u9662
p93
F0.0110089197262175
tp94
a(V\u65b0\u96c5\u4e66\u9662
p95
F0.010752688204576817
tp96
a(V\u6e05\u534e-\u4f2f\u514b\u5229\u6df1\u5733\u5b66\u9662
p97
F0.00997985766957604
tp98
a(V\u82cf\u4e16\u6c11\u4e66\u9662
p99
F0.00980392156862745
tp100
a(V\u80fd\u52a8\u7cfb
p101
F0.00980392156862745
tp102
a.