ccopy_reg
_reconstructor
p0
(cnetworkx.classes.digraph
DiGraph
p1
c__builtin__
object
p2
Ntp3
Rp4
(dp5
S'adjlist_inner_dict_factory'
p6
c__builtin__
dict
p7
sS'node_dict_factory'
p8
g7
sS'edge_attr_dict_factory'
p9
g7
sS'_node'
p10
(dp11
V\u5168\u7403\u521b\u65b0\u5b66\u9662
p12
(dp13
sV\u81ea\u52a8\u5316\u7cfb
p14
(dp15
sV\u7cbe\u4eea\u7cfb
p16
(dp17
sV\u751f\u533b\u7cfb
p18
(dp19
sV\u5de5\u4e1a\u5de5\u7a0b\u7cfb
p20
(dp21
sV\u793e\u79d1\u5b66\u9662
p22
(dp23
sV\u5316\u5b66\u7cfb
p24
(dp25
sV\u7535\u5b50\u7cfb
p26
(dp27
sV\u70ed\u80fd\u7cfb
p28
(dp29
sV\u7535\u673a\u7cfb
p30
(dp31
sS'\xe8\xae\xa1\xe7\xae\x97\xe6\x9c\xba\xe7\xb3\xbb'
p32
(dp33
sV\u5730\u5b66\u7cfb
p34
(dp35
sV\u822a\u9662
p36
(dp37
sV\u7ecf\u7ba1\u5b66\u9662
p38
(dp39
sV\u673a\u68b0\u7cfb
p40
(dp41
sV\u8f6f\u4ef6\u5b66\u9662
p42
(dp43
sV\u6c34\u5229\u7cfb
p44
(dp45
sV\u6cd5\u5b66\u9662
p46
(dp47
sV\u65b0\u96c5\u4e66\u9662
p48
(dp49
sV\u4eba\u6587\u5b66\u9662
p50
(dp51
sV\u751f\u547d\u5b66\u9662
p52
(dp53
sV\u9ad8\u7814\u9662
p54
(dp55
sV\u4e2d\u6587\u7cfb
p56
(dp57
sV\u6e05\u534e-\u4f2f\u514b\u5229\u6df1\u5733\u5b66\u9662
p58
(dp59
sV\u6559\u7814\u9662
p60
(dp61
sV\u516c\u7ba1\u5b66\u9662
p62
(dp63
sV\u82cf\u4e16\u6c11\u4e66\u9662
p64
(dp65
sV\u5fae\u7eb3\u7535\u5b50\u7cfb
p66
(dp67
sV\u73af\u5883\u5b66\u9662
p68
(dp69
sV\u6c7d\u8f66\u7cfb
p70
(dp71
sV\u5316\u5de5\u7cfb
p72
(dp73
sV\u7269\u7406\u7cfb
p74
(dp75
sV\u673a\u68b0\u5b66\u9662
p76
(dp77
sV\u6838\u7814\u9662
p78
(dp79
sV\u6570\u5b66\u7cfb
p80
(dp81
sV\u7f8e\u672f\u5b66\u9662
p82
(dp83
sV\u9a6c\u514b\u601d\u4e3b\u4e49\u5b66\u9662
p84
(dp85
sV\u836f\u5b66\u9662
p86
(dp87
sV\u533b\u5b66\u9662
p88
(dp89
sS'\xe4\xba\xa4\xe5\x8f\x89\xe4\xbf\xa1\xe6\x81\xaf\xe7\xa0\x94\xe7\xa9\xb6\xe9\x99\xa2'
p90
(dp91
sV\u5de5\u7269\u7cfb
p92
(dp93
sV\u571f\u6728\u7cfb
p94
(dp95
sV\u5efa\u7b51\u5b66\u9662
p96
(dp97
sV\u8bbe\u8ba1\u9662
p98
(dp99
sV\u6750\u6599\u5b66\u9662
p100
(dp101
sV\u91d1\u878d\u5b66\u9662
p102
(dp103
sV\u65b0\u95fb\u5b66\u9662
p104
(dp105
sV\u5916\u6587\u7cfb
p106
(dp107
sV\u5fae\u7535\u5b50\u6240
p108
(dp109
sV\u80fd\u52a8\u7cfb
p110
(dp111
sV\u5efa\u7ba1\u7cfb
p112
(dp113
ssS'graph'
p114
(dp115
sS'root_graph'
p116
g4
sS'_pred'
p117
(dp118
g12
(dp119
g12
(dp120
S'weight'
p121
I11
ssV\u5de5\u4e1a\u5de5\u7a0b\u7cfb
p122
(dp123
g121
I1
ssV\u793e\u79d1\u5b66\u9662
p124
(dp125
g121
I1
ssV\u751f\u547d\u5b66\u9662
p126
(dp127
g121
I1
ssV\u7f8e\u672f\u5b66\u9662
p128
(dp129
g121
I1
sssg14
(dp130
g14
(dp131
g121
I1640
ssV\u6c34\u5229\u7cfb
p132
(dp133
g121
I16
ssg16
(dp134
g121
I16
ssg122
(dp135
g121
I36
ssV\u65b0\u95fb\u5b66\u9662
p136
(dp137
g121
I22
ssV\u5316\u5b66\u7cfb
p138
(dp139
g121
I7
ssV\u7535\u5b50\u7cfb
p140
(dp141
g121
I93
ssV\u70ed\u80fd\u7cfb
p142
(dp143
g121
I24
ssV\u7535\u673a\u7cfb
p144
(dp145
g121
I37
ssg32
(dp146
g121
I49
ssV\u822a\u9662
p147
(dp148
g121
I12
ssV\u7ecf\u7ba1\u5b66\u9662
p149
(dp150
g121
I59
ssV\u673a\u68b0\u7cfb
p151
(dp152
g121
I30
ssV\u8f6f\u4ef6\u5b66\u9662
p153
(dp154
g121
I38
ssV\u571f\u6728\u7cfb
p155
(dp156
g121
I236
ssV\u6cd5\u5b66\u9662
p157
(dp158
g121
I18
ssV\u4eba\u6587\u5b66\u9662
p159
(dp160
g121
I16
ssg126
(dp161
g121
I45
ssg64
(dp162
g121
I1
ssV\u6559\u7814\u9662
p163
(dp164
g121
I3
ssV\u516c\u7ba1\u5b66\u9662
p165
(dp166
g121
I6
ssV\u5fae\u7eb3\u7535\u5b50\u7cfb
p167
(dp168
g121
I5
ssV\u73af\u5883\u5b66\u9662
p169
(dp170
g121
I29
ssV\u6c7d\u8f66\u7cfb
p171
(dp172
g121
I14
ssV\u5316\u5de5\u7cfb
p173
(dp174
g121
I23
ssV\u7269\u7406\u7cfb
p175
(dp176
g121
I21
ssV\u673a\u68b0\u5b66\u9662
p177
(dp178
g121
I4
ssV\u6838\u7814\u9662
p179
(dp180
g121
I35
ssV\u6570\u5b66\u7cfb
p181
(dp182
g121
I11
ssg128
(dp183
g121
I22
ssV\u9a6c\u514b\u601d\u4e3b\u4e49\u5b66\u9662
p184
(dp185
g121
I9
ssV\u533b\u5b66\u9662
p186
(dp187
g121
I42
ssV\u5de5\u7269\u7cfb
p188
(dp189
g121
I23
ssg90
(dp190
g121
I2
ssV\u5efa\u7b51\u5b66\u9662
p191
(dp192
g121
I14
ssV\u6750\u6599\u5b66\u9662
p193
(dp194
g121
I10
ssg124
(dp195
g121
I34
ssV\u5916\u6587\u7cfb
p196
(dp197
g121
I8
ssV\u5efa\u7ba1\u7cfb
p198
(dp199
g121
I14
sssg16
(dp200
g14
(dp201
g121
I26
ssg132
(dp202
g121
I12
ssg16
(dp203
g121
I520
ssV\u751f\u533b\u7cfb
p204
(dp205
g121
I2
ssg122
(dp206
g121
I7
ssg136
(dp207
g121
I104
ssg138
(dp208
g121
I7
ssg140
(dp209
g121
I95
ssg142
(dp210
g121
I10
ssg144
(dp211
g121
I9
ssg32
(dp212
g121
I10
ssg147
(dp213
g121
I44
ssg149
(dp214
g121
I29
ssg151
(dp215
g121
I31
ssg153
(dp216
g121
I2
ssg155
(dp217
g121
I31
ssg157
(dp218
g121
I18
ssg159
(dp219
g121
I7
ssg126
(dp220
g121
I12
ssV\u4e2d\u6587\u7cfb
p221
(dp222
g121
I2
ssg163
(dp223
g121
I4
ssg165
(dp224
g121
I2
ssg167
(dp225
g121
I6
ssg169
(dp226
g121
I9
ssg171
(dp227
g121
I4
ssg173
(dp228
g121
I12
ssg175
(dp229
g121
I20
ssg177
(dp230
g121
I5
ssg179
(dp231
g121
I2
ssg181
(dp232
g121
I2
ssg128
(dp233
g121
I4
ssg184
(dp234
g121
I1
ssg186
(dp235
g121
I107
ssg188
(dp236
g121
I12
ssg90
(dp237
g121
I3
ssg191
(dp238
g121
I9
ssg193
(dp239
g121
I19
ssg124
(dp240
g121
I22
ssg196
(dp241
g121
I6
ssg198
(dp242
g121
I3
sssg18
(dp243
g16
(dp244
g121
I1
ssg204
(dp245
g121
I95
ssg136
(dp246
g121
I1
ssg138
(dp247
g121
I2
ssg140
(dp248
g121
I4
ssg144
(dp249
g121
I3
ssg147
(dp250
g121
I1
ssg149
(dp251
g121
I5
ssg153
(dp252
g121
I6
ssg155
(dp253
g121
I1
ssg157
(dp254
g121
I3
ssg159
(dp255
g121
I3
ssg126
(dp256
g121
I2
ssg163
(dp257
g121
I1
ssg173
(dp258
g121
I1
ssg175
(dp259
g121
I1
ssg177
(dp260
g121
I2
ssg181
(dp261
g121
I1
ssg128
(dp262
g121
I1
ssg186
(dp263
g121
I1
ssg188
(dp264
g121
I1
ssg132
(dp265
g121
I1
ssg193
(dp266
g121
I4
ssg124
(dp267
g121
I4
ssg196
(dp268
g121
I1
sssg20
(dp269
g14
(dp270
g121
I85
ssg132
(dp271
g121
I36
ssg16
(dp272
g121
I9
ssg204
(dp273
g121
I4
ssg122
(dp274
g121
I1807
ssg136
(dp275
g121
I106
ssg138
(dp276
g121
I26
ssg140
(dp277
g121
I87
ssg142
(dp278
g121
I70
ssg144
(dp279
g121
I65
ssg32
(dp280
g121
I57
ssg147
(dp281
g121
I29
ssg149
(dp282
g121
I216
ssg151
(dp283
g121
I12
ssg153
(dp284
g121
I152
ssg155
(dp285
g121
I674
ssg157
(dp286
g121
I109
ssg48
(dp287
g121
I1
ssg159
(dp288
g121
I39
ssg126
(dp289
g121
I89
ssg221
(dp290
g121
I8
ssg163
(dp291
g121
I8
ssg165
(dp292
g121
I17
ssg167
(dp293
g121
I12
ssg169
(dp294
g121
I1
ssg171
(dp295
g121
I14
ssg173
(dp296
g121
I47
ssg175
(dp297
g121
I17
ssg177
(dp298
g121
I3
ssg179
(dp299
g121
I20
ssg181
(dp300
g121
I6
ssg128
(dp301
g121
I154
ssg58
(dp302
g121
I1
ssg186
(dp303
g121
I11
ssg188
(dp304
g121
I19
ssg90
(dp305
g121
I7
ssg191
(dp306
g121
I40
ssg193
(dp307
g121
I74
ssg124
(dp308
g121
I73
ssg196
(dp309
g121
I3
ssg198
(dp310
g121
I1
sssg22
(dp311
g14
(dp312
g121
I35
ssg132
(dp313
g121
I42
ssg16
(dp314
g121
I18
ssg204
(dp315
g121
I7
ssg122
(dp316
g121
I60
ssg136
(dp317
g121
I122
ssg138
(dp318
g121
I41
ssg140
(dp319
g121
I78
ssg142
(dp320
g121
I86
ssg144
(dp321
g121
I37
ssg32
(dp322
g121
I83
ssV\u5730\u5b66\u7cfb
p323
(dp324
g121
I1
ssg147
(dp325
g121
I49
ssg149
(dp326
g121
I180
ssg151
(dp327
g121
I32
ssg153
(dp328
g121
I43
ssg155
(dp329
g121
I155
ssg157
(dp330
g121
I77
ssg48
(dp331
g121
I3
ssg159
(dp332
g121
I162
ssg126
(dp333
g121
I97
ssg221
(dp334
g121
I29
ssg163
(dp335
g121
I60
ssg165
(dp336
g121
I56
ssg167
(dp337
g121
I18
ssg169
(dp338
g121
I31
ssg171
(dp339
g121
I20
ssg173
(dp340
g121
I34
ssg175
(dp341
g121
I84
ssg177
(dp342
g121
I7
ssg179
(dp343
g121
I22
ssg181
(dp344
g121
I45
ssg128
(dp345
g121
I108
ssg184
(dp346
g121
I8
ssV\u836f\u5b66\u9662
p347
(dp348
g121
I1
ssg186
(dp349
g121
I50
ssg188
(dp350
g121
I42
ssg90
(dp351
g121
I24
ssg191
(dp352
g121
I85
ssg193
(dp353
g121
I43
ssV\u91d1\u878d\u5b66\u9662
p354
(dp355
g121
I3
ssg124
(dp356
g121
I5269
ssg196
(dp357
g121
I64
ssg198
(dp358
g121
I5
sssg24
(dp359
g14
(dp360
g121
I18
ssg132
(dp361
g121
I8
ssg16
(dp362
g121
I17
ssg204
(dp363
g121
I2
ssg122
(dp364
g121
I26
ssg136
(dp365
g121
I33
ssg138
(dp366
g121
I3023
ssg140
(dp367
g121
I16
ssg142
(dp368
g121
I23
ssg144
(dp369
g121
I21
ssg32
(dp370
g121
I14
ssg147
(dp371
g121
I15
ssg149
(dp372
g121
I45
ssg151
(dp373
g121
I7
ssg153
(dp374
g121
I18
ssg155
(dp375
g121
I43
ssg157
(dp376
g121
I34
ssg159
(dp377
g121
I13
ssg126
(dp378
g121
I84
ssg184
(dp379
g121
I3
ssg163
(dp380
g121
I2
ssg165
(dp381
g121
I28
ssg167
(dp382
g121
I4
ssg169
(dp383
g121
I18
ssg171
(dp384
g121
I3
ssg173
(dp385
g121
I202
ssg175
(dp386
g121
I25
ssg177
(dp387
g121
I7
ssg179
(dp388
g121
I8
ssg181
(dp389
g121
I8
ssg128
(dp390
g121
I17
ssg58
(dp391
g121
I15
ssg347
(dp392
g121
I5
ssg186
(dp393
g121
I34
ssg188
(dp394
g121
I15
ssg90
(dp395
g121
I19
ssg191
(dp396
g121
I18
ssg193
(dp397
g121
I22
ssg354
(dp398
g121
I2
ssg124
(dp399
g121
I33
ssg196
(dp400
g121
I17
ssg198
(dp401
g121
I3
sssg26
(dp402
g14
(dp403
g121
I135
ssg132
(dp404
g121
I35
ssg16
(dp405
g121
I128
ssg204
(dp406
g121
I2
ssg122
(dp407
g121
I20
ssg136
(dp408
g121
I29
ssg138
(dp409
g121
I19
ssg140
(dp410
g121
I2890
ssg142
(dp411
g121
I69
ssg144
(dp412
g121
I70
ssg32
(dp413
g121
I35
ssg147
(dp414
g121
I44
ssg149
(dp415
g121
I197
ssg151
(dp416
g121
I26
ssg153
(dp417
g121
I61
ssg155
(dp418
g121
I97
ssg157
(dp419
g121
I149
ssg48
(dp420
g121
I5
ssg159
(dp421
g121
I30
ssg126
(dp422
g121
I25
ssg221
(dp423
g121
I3
ssg184
(dp424
g121
I1
ssg163
(dp425
g121
I12
ssg165
(dp426
g121
I85
ssg167
(dp427
g121
I83
ssg169
(dp428
g121
I29
ssg171
(dp429
g121
I34
ssg173
(dp430
g121
I16
ssg175
(dp431
g121
I13
ssg177
(dp432
g121
I6
ssg179
(dp433
g121
I14
ssg181
(dp434
g121
I8
ssg128
(dp435
g121
I55
ssg58
(dp436
g121
I15
ssg186
(dp437
g121
I181
ssg188
(dp438
g121
I31
ssg90
(dp439
g121
I12
ssg191
(dp440
g121
I15
ssg193
(dp441
g121
I162
ssg354
(dp442
g121
I4
ssg124
(dp443
g121
I48
ssg196
(dp444
g121
I18
ssV\u5fae\u7535\u5b50\u6240
p445
(dp446
g121
I1
ssg198
(dp447
g121
I5
sssg28
(dp448
g14
(dp449
g121
I29
ssg132
(dp450
g121
I16
ssg16
(dp451
g121
I8
ssg204
(dp452
g121
I7
ssg122
(dp453
g121
I25
ssg136
(dp454
g121
I18
ssg138
(dp455
g121
I15
ssg140
(dp456
g121
I71
ssg142
(dp457
g121
I1100
ssg144
(dp458
g121
I28
ssg32
(dp459
g121
I11
ssg147
(dp460
g121
I37
ssg149
(dp461
g121
I22
ssg151
(dp462
g121
I13
ssg153
(dp463
g121
I14
ssg155
(dp464
g121
I31
ssg157
(dp465
g121
I24
ssg48
(dp466
g121
I2
ssg159
(dp467
g121
I26
ssg126
(dp468
g121
I26
ssg221
(dp469
g121
I1
ssg163
(dp470
g121
I6
ssg165
(dp471
g121
I15
ssg167
(dp472
g121
I2
ssg169
(dp473
g121
I27
ssg171
(dp474
g121
I15
ssg173
(dp475
g121
I29
ssg175
(dp476
g121
I21
ssg177
(dp477
g121
I31
ssg179
(dp478
g121
I55
ssg181
(dp479
g121
I10
ssg128
(dp480
g121
I14
ssg184
(dp481
g121
I1
ssg347
(dp482
g121
I4
ssg186
(dp483
g121
I32
ssg110
(dp484
g121
I1
ssg188
(dp485
g121
I34
ssg90
(dp486
g121
I5
ssg191
(dp487
g121
I33
ssg193
(dp488
g121
I19
ssg124
(dp489
g121
I28
ssg196
(dp490
g121
I8
ssg198
(dp491
g121
I1
sssg30
(dp492
g14
(dp493
g121
I23
ssg132
(dp494
g121
I4
ssg16
(dp495
g121
I3
ssg122
(dp496
g121
I41
ssg136
(dp497
g121
I23
ssg138
(dp498
g121
I21
ssg140
(dp499
g121
I110
ssg142
(dp500
g121
I13
ssg144
(dp501
g121
I1149
ssg32
(dp502
g121
I100
ssg147
(dp503
g121
I69
ssg149
(dp504
g121
I62
ssg151
(dp505
g121
I1
ssg153
(dp506
g121
I9
ssg155
(dp507
g121
I29
ssg157
(dp508
g121
I24
ssg159
(dp509
g121
I39
ssg126
(dp510
g121
I9
ssg221
(dp511
g121
I1
ssg163
(dp512
g121
I4
ssg165
(dp513
g121
I67
ssg167
(dp514
g121
I4
ssg169
(dp515
g121
I18
ssg171
(dp516
g121
I7
ssg173
(dp517
g121
I9
ssg175
(dp518
g121
I2
ssg177
(dp519
g121
I6
ssg179
(dp520
g121
I12
ssg181
(dp521
g121
I1
ssg128
(dp522
g121
I17
ssg347
(dp523
g121
I2
ssg186
(dp524
g121
I7
ssg188
(dp525
g121
I8
ssg90
(dp526
g121
I4
ssg191
(dp527
g121
I44
ssg193
(dp528
g121
I27
ssg124
(dp529
g121
I40
ssg196
(dp530
g121
I3
ssg198
(dp531
g121
I1
sssg32
(dp532
g14
(dp533
g121
I38
ssg132
(dp534
g121
I16
ssg16
(dp535
g121
I10
ssg122
(dp536
g121
I39
ssg136
(dp537
g121
I28
ssg138
(dp538
g121
I14
ssg140
(dp539
g121
I31
ssg142
(dp540
g121
I10
ssg144
(dp541
g121
I55
ssg32
(dp542
g121
I1843
ssg147
(dp543
g121
I69
ssg149
(dp544
g121
I43
ssg151
(dp545
g121
I23
ssg153
(dp546
g121
I37
ssg155
(dp547
g121
I52
ssg157
(dp548
g121
I13
ssg159
(dp549
g121
I25
ssg126
(dp550
g121
I26
ssg54
(dp551
g121
I2
ssg221
(dp552
g121
I1
ssg163
(dp553
g121
I20
ssg165
(dp554
g121
I20
ssg167
(dp555
g121
I10
ssg169
(dp556
g121
I18
ssg171
(dp557
g121
I7
ssg173
(dp558
g121
I3
ssg175
(dp559
g121
I32
ssg177
(dp560
g121
I6
ssg179
(dp561
g121
I3
ssg181
(dp562
g121
I10
ssg128
(dp563
g121
I52
ssg184
(dp564
g121
I1
ssg186
(dp565
g121
I5
ssg188
(dp566
g121
I41
ssg90
(dp567
g121
I20
ssg191
(dp568
g121
I70
ssg193
(dp569
g121
I14
ssg354
(dp570
g121
I3
ssg124
(dp571
g121
I86
ssg196
(dp572
g121
I3
ssg198
(dp573
g121
I4
sssg34
(dp574
g323
(dp575
g121
I4
ssg140
(dp576
g121
I1
ssg147
(dp577
g121
I1
ssg155
(dp578
g121
I1
sssg36
(dp579
g14
(dp580
g121
I34
ssg132
(dp581
g121
I14
ssg16
(dp582
g121
I38
ssg204
(dp583
g121
I8
ssg122
(dp584
g121
I22
ssg136
(dp585
g121
I23
ssg138
(dp586
g121
I25
ssg140
(dp587
g121
I60
ssg142
(dp588
g121
I11
ssg144
(dp589
g121
I24
ssg32
(dp590
g121
I60
ssg147
(dp591
g121
I1335
ssg149
(dp592
g121
I24
ssg151
(dp593
g121
I29
ssg153
(dp594
g121
I26
ssg155
(dp595
g121
I49
ssg157
(dp596
g121
I19
ssg159
(dp597
g121
I24
ssg126
(dp598
g121
I45
ssg54
(dp599
g121
I1
ssg221
(dp600
g121
I3
ssg163
(dp601
g121
I33
ssg165
(dp602
g121
I14
ssg167
(dp603
g121
I4
ssg169
(dp604
g121
I27
ssg171
(dp605
g121
I21
ssg173
(dp606
g121
I33
ssg175
(dp607
g121
I23
ssg177
(dp608
g121
I11
ssg179
(dp609
g121
I10
ssg181
(dp610
g121
I27
ssg128
(dp611
g121
I8
ssg186
(dp612
g121
I22
ssg188
(dp613
g121
I31
ssg90
(dp614
g121
I28
ssg191
(dp615
g121
I24
ssg193
(dp616
g121
I20
ssg124
(dp617
g121
I49
ssg196
(dp618
g121
I7
sssg38
(dp619
g14
(dp620
g121
I90
ssg132
(dp621
g121
I38
ssg16
(dp622
g121
I21
ssg122
(dp623
g121
I185
ssg136
(dp624
g121
I101
ssg138
(dp625
g121
I45
ssg140
(dp626
g121
I87
ssg142
(dp627
g121
I69
ssg144
(dp628
g121
I64
ssg32
(dp629
g121
I38
ssg147
(dp630
g121
I25
ssg149
(dp631
g121
I3620
ssg151
(dp632
g121
I29
ssg153
(dp633
g121
I39
ssg155
(dp634
g121
I319
ssg157
(dp635
g121
I109
ssg159
(dp636
g121
I67
ssg126
(dp637
g121
I98
ssg54
(dp638
g121
I1
ssg221
(dp639
g121
I19
ssg163
(dp640
g121
I30
ssg165
(dp641
g121
I34
ssg167
(dp642
g121
I7
ssg169
(dp643
g121
I32
ssg171
(dp644
g121
I24
ssg173
(dp645
g121
I71
ssg175
(dp646
g121
I29
ssg177
(dp647
g121
I7
ssg179
(dp648
g121
I31
ssg181
(dp649
g121
I20
ssg128
(dp650
g121
I48
ssg347
(dp651
g121
I3
ssg186
(dp652
g121
I87
ssg188
(dp653
g121
I36
ssg90
(dp654
g121
I22
ssg191
(dp655
g121
I55
ssg193
(dp656
g121
I52
ssg354
(dp657
g121
I14
ssg124
(dp658
g121
I132
ssg196
(dp659
g121
I12
ssg198
(dp660
g121
I29
sssg40
(dp661
g14
(dp662
g121
I24
ssg132
(dp663
g121
I17
ssg16
(dp664
g121
I6
ssg204
(dp665
g121
I1
ssg122
(dp666
g121
I11
ssg136
(dp667
g121
I9
ssg138
(dp668
g121
I8
ssg140
(dp669
g121
I22
ssg142
(dp670
g121
I10
ssg144
(dp671
g121
I13
ssg32
(dp672
g121
I41
ssg147
(dp673
g121
I25
ssg149
(dp674
g121
I30
ssg151
(dp675
g121
I810
ssg153
(dp676
g121
I13
ssg155
(dp677
g121
I21
ssg157
(dp678
g121
I35
ssg159
(dp679
g121
I18
ssg126
(dp680
g121
I25
ssg54
(dp681
g121
I3
ssg221
(dp682
g121
I2
ssg163
(dp683
g121
I16
ssg165
(dp684
g121
I6
ssg167
(dp685
g121
I9
ssg169
(dp686
g121
I12
ssg171
(dp687
g121
I8
ssg173
(dp688
g121
I11
ssg175
(dp689
g121
I5
ssg177
(dp690
g121
I19
ssg179
(dp691
g121
I10
ssg181
(dp692
g121
I4
ssg128
(dp693
g121
I16
ssg186
(dp694
g121
I24
ssg188
(dp695
g121
I19
ssg90
(dp696
g121
I2
ssg191
(dp697
g121
I15
ssg193
(dp698
g121
I18
ssg354
(dp699
g121
I3
ssg124
(dp700
g121
I21
ssg196
(dp701
g121
I14
ssg198
(dp702
g121
I1
sssg42
(dp703
g14
(dp704
g121
I58
ssg132
(dp705
g121
I33
ssg16
(dp706
g121
I18
ssg204
(dp707
g121
I1
ssg122
(dp708
g121
I64
ssg136
(dp709
g121
I46
ssg138
(dp710
g121
I9
ssg140
(dp711
g121
I95
ssg142
(dp712
g121
I19
ssg144
(dp713
g121
I45
ssg32
(dp714
g121
I53
ssg147
(dp715
g121
I22
ssg149
(dp716
g121
I48
ssg151
(dp717
g121
I12
ssg153
(dp718
g121
I3250
ssg155
(dp719
g121
I58
ssg157
(dp720
g121
I18
ssg159
(dp721
g121
I71
ssg126
(dp722
g121
I31
ssg221
(dp723
g121
I3
ssg163
(dp724
g121
I15
ssg165
(dp725
g121
I7
ssg167
(dp726
g121
I27
ssg169
(dp727
g121
I19
ssg171
(dp728
g121
I13
ssg173
(dp729
g121
I15
ssg175
(dp730
g121
I22
ssg177
(dp731
g121
I1
ssg179
(dp732
g121
I17
ssg181
(dp733
g121
I11
ssg128
(dp734
g121
I50
ssg184
(dp735
g121
I1
ssg186
(dp736
g121
I28
ssg188
(dp737
g121
I28
ssg90
(dp738
g121
I12
ssg191
(dp739
g121
I81
ssg193
(dp740
g121
I21
ssg124
(dp741
g121
I108
ssg196
(dp742
g121
I6
ssg445
(dp743
g121
I1
ssg198
(dp744
g121
I35
sssg44
(dp745
g12
(dp746
g121
I1
ssg14
(dp747
g121
I11
ssg132
(dp748
g121
I856
ssg16
(dp749
g121
I2
ssg122
(dp750
g121
I5
ssg136
(dp751
g121
I14
ssg138
(dp752
g121
I4
ssg140
(dp753
g121
I13
ssg142
(dp754
g121
I14
ssg144
(dp755
g121
I20
ssg32
(dp756
g121
I10
ssg323
(dp757
g121
I1
ssg147
(dp758
g121
I13
ssg149
(dp759
g121
I23
ssg151
(dp760
g121
I25
ssg153
(dp761
g121
I13
ssg155
(dp762
g121
I27
ssg157
(dp763
g121
I20
ssg159
(dp764
g121
I27
ssg126
(dp765
g121
I15
ssg221
(dp766
g121
I1
ssg163
(dp767
g121
I6
ssg165
(dp768
g121
I5
ssg167
(dp769
g121
I4
ssg169
(dp770
g121
I12
ssg171
(dp771
g121
I3
ssg173
(dp772
g121
I7
ssg175
(dp773
g121
I9
ssg177
(dp774
g121
I1
ssg179
(dp775
g121
I6
ssg181
(dp776
g121
I3
ssg128
(dp777
g121
I12
ssg184
(dp778
g121
I3
ssg347
(dp779
g121
I1
ssg186
(dp780
g121
I16
ssg188
(dp781
g121
I21
ssg90
(dp782
g121
I2
ssg191
(dp783
g121
I32
ssg193
(dp784
g121
I7
ssg124
(dp785
g121
I38
ssg196
(dp786
g121
I3
ssg198
(dp787
g121
I2
sssg46
(dp788
g14
(dp789
g121
I46
ssg132
(dp790
g121
I27
ssg16
(dp791
g121
I33
ssg204
(dp792
g121
I5
ssg122
(dp793
g121
I56
ssg136
(dp794
g121
I64
ssg138
(dp795
g121
I24
ssg140
(dp796
g121
I140
ssg142
(dp797
g121
I27
ssg144
(dp798
g121
I26
ssg32
(dp799
g121
I22
ssg147
(dp800
g121
I36
ssg149
(dp801
g121
I97
ssg151
(dp802
g121
I24
ssg153
(dp803
g121
I38
ssg155
(dp804
g121
I91
ssg157
(dp805
g121
I2386
ssg48
(dp806
g121
I9
ssg159
(dp807
g121
I68
ssg126
(dp808
g121
I66
ssg54
(dp809
g121
I1
ssg163
(dp810
g121
I14
ssg165
(dp811
g121
I14
ssg167
(dp812
g121
I11
ssg169
(dp813
g121
I27
ssg171
(dp814
g121
I14
ssg173
(dp815
g121
I40
ssg175
(dp816
g121
I11
ssg177
(dp817
g121
I6
ssg179
(dp818
g121
I10
ssg181
(dp819
g121
I13
ssg128
(dp820
g121
I40
ssg184
(dp821
g121
I3
ssg347
(dp822
g121
I2
ssg186
(dp823
g121
I54
ssg188
(dp824
g121
I37
ssg90
(dp825
g121
I8
ssg191
(dp826
g121
I43
ssg193
(dp827
g121
I63
ssg354
(dp828
g121
I3
ssg124
(dp829
g121
I46
ssg196
(dp830
g121
I15
ssg198
(dp831
g121
I1
sssg48
(dp832
g48
(dp833
g121
I12
sssg50
(dp834
g14
(dp835
g121
I58
ssg132
(dp836
g121
I66
ssg16
(dp837
g121
I11
ssg204
(dp838
g121
I11
ssg122
(dp839
g121
I42
ssg136
(dp840
g121
I102
ssg138
(dp841
g121
I95
ssg140
(dp842
g121
I84
ssg142
(dp843
g121
I37
ssg144
(dp844
g121
I67
ssg32
(dp845
g121
I42
ssg323
(dp846
g121
I1
ssg147
(dp847
g121
I103
ssg149
(dp848
g121
I93
ssg151
(dp849
g121
I35
ssg153
(dp850
g121
I98
ssg155
(dp851
g121
I130
ssg157
(dp852
g121
I96
ssg48
(dp853
g121
I6
ssg159
(dp854
g121
I4346
ssg126
(dp855
g121
I92
ssg54
(dp856
g121
I3
ssg221
(dp857
g121
I28
ssg163
(dp858
g121
I54
ssg165
(dp859
g121
I41
ssg167
(dp860
g121
I28
ssg169
(dp861
g121
I34
ssg171
(dp862
g121
I19
ssg173
(dp863
g121
I113
ssg175
(dp864
g121
I98
ssg177
(dp865
g121
I67
ssg179
(dp866
g121
I23
ssg181
(dp867
g121
I121
ssg128
(dp868
g121
I69
ssg184
(dp869
g121
I29
ssg347
(dp870
g121
I13
ssg186
(dp871
g121
I45
ssg110
(dp872
g121
I2
ssg188
(dp873
g121
I79
ssg90
(dp874
g121
I55
ssg191
(dp875
g121
I84
ssg193
(dp876
g121
I113
ssg354
(dp877
g121
I4
ssg124
(dp878
g121
I172
ssg196
(dp879
g121
I114
ssg198
(dp880
g121
I8
sssg52
(dp881
g14
(dp882
g121
I32
ssg132
(dp883
g121
I16
ssg16
(dp884
g121
I7
ssg204
(dp885
g121
I1
ssg122
(dp886
g121
I78
ssg136
(dp887
g121
I42
ssg138
(dp888
g121
I63
ssg140
(dp889
g121
I44
ssg142
(dp890
g121
I22
ssg144
(dp891
g121
I25
ssg32
(dp892
g121
I34
ssg323
(dp893
g121
I1
ssg147
(dp894
g121
I30
ssg149
(dp895
g121
I99
ssg151
(dp896
g121
I18
ssg153
(dp897
g121
I23
ssg155
(dp898
g121
I135
ssg157
(dp899
g121
I102
ssg48
(dp900
g121
I3
ssg159
(dp901
g121
I86
ssg126
(dp902
g121
I1745
ssg221
(dp903
g121
I20
ssg163
(dp904
g121
I11
ssg165
(dp905
g121
I12
ssg167
(dp906
g121
I3
ssg169
(dp907
g121
I17
ssg171
(dp908
g121
I15
ssg173
(dp909
g121
I59
ssg175
(dp910
g121
I33
ssg177
(dp911
g121
I4
ssg179
(dp912
g121
I17
ssg181
(dp913
g121
I15
ssg128
(dp914
g121
I62
ssg184
(dp915
g121
I1
ssg347
(dp916
g121
I15
ssg186
(dp917
g121
I216
ssg188
(dp918
g121
I41
ssg90
(dp919
g121
I9
ssg191
(dp920
g121
I19
ssg193
(dp921
g121
I52
ssg354
(dp922
g121
I5
ssg124
(dp923
g121
I31
ssg196
(dp924
g121
I8
sssg54
(dp925
g173
(dp926
g121
I1
ssg175
(dp927
g121
I2
ssg193
(dp928
g121
I1
ssg138
(dp929
g121
I1
ssg54
(dp930
g121
I10
ssg191
(dp931
g121
I1
ssg163
(dp932
g121
I1
sssg56
(dp933
g14
(dp934
g121
I3
ssg16
(dp935
g121
I1
ssg122
(dp936
g121
I2
ssg136
(dp937
g121
I2
ssg138
(dp938
g121
I2
ssg140
(dp939
g121
I3
ssg144
(dp940
g121
I4
ssg32
(dp941
g121
I1
ssg147
(dp942
g121
I1
ssg149
(dp943
g121
I6
ssg151
(dp944
g121
I2
ssg153
(dp945
g121
I3
ssg155
(dp946
g121
I1
ssg157
(dp947
g121
I4
ssg159
(dp948
g121
I10
ssg126
(dp949
g121
I7
ssg221
(dp950
g121
I246
ssg169
(dp951
g121
I1
ssg171
(dp952
g121
I2
ssg173
(dp953
g121
I1
ssg175
(dp954
g121
I1
ssg179
(dp955
g121
I1
ssg128
(dp956
g121
I2
ssg186
(dp957
g121
I1
ssg188
(dp958
g121
I1
ssg132
(dp959
g121
I2
ssg191
(dp960
g121
I2
ssg193
(dp961
g121
I1
ssg124
(dp962
g121
I9
ssg196
(dp963
g121
I12
sssg58
(dp964
g122
(dp965
g121
I1
ssg165
(dp966
g121
I1
ssg140
(dp967
g121
I3
ssg142
(dp968
g121
I1
ssg58
(dp969
g121
I1
sssg60
(dp970
g14
(dp971
g121
I7
ssg132
(dp972
g121
I12
ssg16
(dp973
g121
I7
ssg204
(dp974
g121
I4
ssg122
(dp975
g121
I18
ssg136
(dp976
g121
I25
ssg138
(dp977
g121
I14
ssg140
(dp978
g121
I45
ssg142
(dp979
g121
I25
ssg144
(dp980
g121
I15
ssg32
(dp981
g121
I27
ssg147
(dp982
g121
I27
ssg149
(dp983
g121
I41
ssg151
(dp984
g121
I56
ssg153
(dp985
g121
I26
ssg155
(dp986
g121
I61
ssg157
(dp987
g121
I21
ssg159
(dp988
g121
I46
ssg126
(dp989
g121
I21
ssg221
(dp990
g121
I7
ssg163
(dp991
g121
I1752
ssg165
(dp992
g121
I11
ssg167
(dp993
g121
I3
ssg169
(dp994
g121
I21
ssg171
(dp995
g121
I8
ssg173
(dp996
g121
I37
ssg175
(dp997
g121
I23
ssg177
(dp998
g121
I28
ssg179
(dp999
g121
I9
ssg181
(dp1000
g121
I11
ssg128
(dp1001
g121
I46
ssg184
(dp1002
g121
I3
ssg186
(dp1003
g121
I13
ssg188
(dp1004
g121
I48
ssg90
(dp1005
g121
I8
ssg191
(dp1006
g121
I37
ssg193
(dp1007
g121
I26
ssg354
(dp1008
g121
I1
ssg124
(dp1009
g121
I54
ssg196
(dp1010
g121
I18
ssg198
(dp1011
g121
I1
sssg62
(dp1012
g14
(dp1013
g121
I5
ssg16
(dp1014
g121
I7
ssg122
(dp1015
g121
I3
ssg136
(dp1016
g121
I9
ssg138
(dp1017
g121
I4
ssg140
(dp1018
g121
I82
ssg142
(dp1019
g121
I30
ssg144
(dp1020
g121
I9
ssg32
(dp1021
g121
I9
ssg147
(dp1022
g121
I11
ssg149
(dp1023
g121
I25
ssg151
(dp1024
g121
I10
ssg153
(dp1025
g121
I6
ssg155
(dp1026
g121
I21
ssg157
(dp1027
g121
I9
ssg159
(dp1028
g121
I16
ssg126
(dp1029
g121
I6
ssg54
(dp1030
g121
I1
ssg163
(dp1031
g121
I13
ssg165
(dp1032
g121
I748
ssg167
(dp1033
g121
I4
ssg169
(dp1034
g121
I11
ssg171
(dp1035
g121
I12
ssg173
(dp1036
g121
I5
ssg175
(dp1037
g121
I1
ssg179
(dp1038
g121
I47
ssg181
(dp1039
g121
I2
ssg128
(dp1040
g121
I5
ssg186
(dp1041
g121
I7
ssg188
(dp1042
g121
I11
ssg132
(dp1043
g121
I6
ssg191
(dp1044
g121
I10
ssg193
(dp1045
g121
I10
ssg354
(dp1046
g121
I1
ssg124
(dp1047
g121
I19
ssg196
(dp1048
g121
I8
sssg64
(dp1049
sg66
(dp1050
g14
(dp1051
g121
I15
ssg132
(dp1052
g121
I2
ssg16
(dp1053
g121
I2
ssg122
(dp1054
g121
I5
ssg124
(dp1055
g121
I6
ssg140
(dp1056
g121
I57
ssg142
(dp1057
g121
I2
ssg144
(dp1058
g121
I8
ssg32
(dp1059
g121
I12
ssg147
(dp1060
g121
I8
ssg149
(dp1061
g121
I23
ssg153
(dp1062
g121
I33
ssg155
(dp1063
g121
I1
ssg157
(dp1064
g121
I6
ssg159
(dp1065
g121
I10
ssg126
(dp1066
g121
I6
ssg54
(dp1067
g121
I2
ssg221
(dp1068
g121
I2
ssg163
(dp1069
g121
I6
ssg165
(dp1070
g121
I1
ssg167
(dp1071
g121
I143
ssg169
(dp1072
g121
I17
ssg171
(dp1073
g121
I3
ssg173
(dp1074
g121
I4
ssg179
(dp1075
g121
I1
ssg128
(dp1076
g121
I7
ssg186
(dp1077
g121
I17
ssg188
(dp1078
g121
I10
ssg90
(dp1079
g121
I1
ssg193
(dp1080
g121
I4
ssg354
(dp1081
g121
I1
ssg191
(dp1082
g121
I2
ssg196
(dp1083
g121
I2
ssg445
(dp1084
g121
I2
sssg68
(dp1085
g14
(dp1086
g121
I26
ssg132
(dp1087
g121
I15
ssg16
(dp1088
g121
I4
ssg204
(dp1089
g121
I1
ssg122
(dp1090
g121
I9
ssg136
(dp1091
g121
I13
ssg138
(dp1092
g121
I10
ssg140
(dp1093
g121
I28
ssg142
(dp1094
g121
I10
ssg144
(dp1095
g121
I14
ssg32
(dp1096
g121
I17
ssg147
(dp1097
g121
I14
ssg149
(dp1098
g121
I44
ssg151
(dp1099
g121
I16
ssg153
(dp1100
g121
I18
ssg155
(dp1101
g121
I42
ssg157
(dp1102
g121
I18
ssg48
(dp1103
g121
I1
ssg159
(dp1104
g121
I18
ssg126
(dp1105
g121
I31
ssg221
(dp1106
g121
I1
ssg163
(dp1107
g121
I8
ssg165
(dp1108
g121
I8
ssg167
(dp1109
g121
I34
ssg169
(dp1110
g121
I769
ssg171
(dp1111
g121
I7
ssg173
(dp1112
g121
I29
ssg175
(dp1113
g121
I15
ssg177
(dp1114
g121
I10
ssg179
(dp1115
g121
I46
ssg181
(dp1116
g121
I3
ssg128
(dp1117
g121
I28
ssg184
(dp1118
g121
I1
ssg347
(dp1119
g121
I2
ssg186
(dp1120
g121
I18
ssg188
(dp1121
g121
I28
ssg90
(dp1122
g121
I3
ssg191
(dp1123
g121
I24
ssg193
(dp1124
g121
I36
ssg354
(dp1125
g121
I2
ssg124
(dp1126
g121
I35
ssg196
(dp1127
g121
I19
ssg198
(dp1128
g121
I10
sssg70
(dp1129
g14
(dp1130
g121
I29
ssg132
(dp1131
g121
I10
ssg16
(dp1132
g121
I16
ssg122
(dp1133
g121
I9
ssg136
(dp1134
g121
I9
ssg138
(dp1135
g121
I2
ssg140
(dp1136
g121
I86
ssg142
(dp1137
g121
I12
ssg144
(dp1138
g121
I13
ssg32
(dp1139
g121
I22
ssg147
(dp1140
g121
I6
ssg149
(dp1141
g121
I19
ssg151
(dp1142
g121
I22
ssg153
(dp1143
g121
I5
ssg155
(dp1144
g121
I31
ssg157
(dp1145
g121
I4
ssg48
(dp1146
g121
I13
ssg159
(dp1147
g121
I14
ssg126
(dp1148
g121
I9
ssg163
(dp1149
g121
I4
ssg165
(dp1150
g121
I51
ssg167
(dp1151
g121
I1
ssg169
(dp1152
g121
I10
ssg171
(dp1153
g121
I726
ssg173
(dp1154
g121
I5
ssg175
(dp1155
g121
I4
ssg177
(dp1156
g121
I1
ssg179
(dp1157
g121
I8
ssg181
(dp1158
g121
I3
ssg128
(dp1159
g121
I14
ssg186
(dp1160
g121
I13
ssg188
(dp1161
g121
I22
ssg90
(dp1162
g121
I1
ssg191
(dp1163
g121
I10
ssg193
(dp1164
g121
I7
ssg354
(dp1165
g121
I1
ssg124
(dp1166
g121
I22
ssg196
(dp1167
g121
I9
sssg72
(dp1168
g14
(dp1169
g121
I59
ssg132
(dp1170
g121
I14
ssg16
(dp1171
g121
I14
ssg204
(dp1172
g121
I3
ssg122
(dp1173
g121
I82
ssg136
(dp1174
g121
I42
ssg138
(dp1175
g121
I36
ssg140
(dp1176
g121
I28
ssg142
(dp1177
g121
I26
ssg144
(dp1178
g121
I13
ssg32
(dp1179
g121
I13
ssg147
(dp1180
g121
I18
ssg149
(dp1181
g121
I107
ssg151
(dp1182
g121
I16
ssg153
(dp1183
g121
I56
ssg155
(dp1184
g121
I123
ssg157
(dp1185
g121
I51
ssg48
(dp1186
g121
I1
ssg159
(dp1187
g121
I72
ssg126
(dp1188
g121
I76
ssg221
(dp1189
g121
I7
ssg163
(dp1190
g121
I9
ssg165
(dp1191
g121
I4
ssg167
(dp1192
g121
I6
ssg169
(dp1193
g121
I39
ssg171
(dp1194
g121
I5
ssg173
(dp1195
g121
I814
ssg175
(dp1196
g121
I7
ssg177
(dp1197
g121
I6
ssg179
(dp1198
g121
I19
ssg181
(dp1199
g121
I7
ssg128
(dp1200
g121
I56
ssg184
(dp1201
g121
I1
ssg186
(dp1202
g121
I26
ssg188
(dp1203
g121
I46
ssg90
(dp1204
g121
I7
ssg191
(dp1205
g121
I23
ssg193
(dp1206
g121
I41
ssg124
(dp1207
g121
I43
ssg196
(dp1208
g121
I8
ssg198
(dp1209
g121
I2
sssg74
(dp1210
g14
(dp1211
g121
I15
ssg132
(dp1212
g121
I10
ssg16
(dp1213
g121
I14
ssg122
(dp1214
g121
I10
ssg136
(dp1215
g121
I9
ssg138
(dp1216
g121
I20
ssg140
(dp1217
g121
I59
ssg142
(dp1218
g121
I25
ssg144
(dp1219
g121
I13
ssg32
(dp1220
g121
I15
ssg147
(dp1221
g121
I36
ssg149
(dp1222
g121
I28
ssg151
(dp1223
g121
I19
ssg153
(dp1224
g121
I16
ssg155
(dp1225
g121
I26
ssg157
(dp1226
g121
I18
ssg159
(dp1227
g121
I25
ssg126
(dp1228
g121
I37
ssg54
(dp1229
g121
I1
ssg221
(dp1230
g121
I1
ssg163
(dp1231
g121
I3
ssg165
(dp1232
g121
I1
ssg167
(dp1233
g121
I1
ssg169
(dp1234
g121
I17
ssg191
(dp1235
g121
I17
ssg173
(dp1236
g121
I13
ssg175
(dp1237
g121
I1264
ssg177
(dp1238
g121
I3
ssg179
(dp1239
g121
I12
ssg181
(dp1240
g121
I38
ssg128
(dp1241
g121
I23
ssg184
(dp1242
g121
I3
ssg347
(dp1243
g121
I1
ssg186
(dp1244
g121
I18
ssg188
(dp1245
g121
I58
ssg90
(dp1246
g121
I9
ssg193
(dp1247
g121
I20
ssg354
(dp1248
g121
I3
ssg124
(dp1249
g121
I38
ssg196
(dp1250
g121
I6
ssg198
(dp1251
g121
I1
sssg76
(dp1252
g14
(dp1253
g121
I3
ssg16
(dp1254
g121
I2
ssg204
(dp1255
g121
I1
ssg122
(dp1256
g121
I2
ssg136
(dp1257
g121
I3
ssg138
(dp1258
g121
I9
ssg140
(dp1259
g121
I14
ssg142
(dp1260
g121
I5
ssg144
(dp1261
g121
I3
ssg32
(dp1262
g121
I6
ssg147
(dp1263
g121
I6
ssg149
(dp1264
g121
I8
ssg151
(dp1265
g121
I18
ssg153
(dp1266
g121
I6
ssg155
(dp1267
g121
I15
ssg157
(dp1268
g121
I6
ssg159
(dp1269
g121
I9
ssg126
(dp1270
g121
I5
ssg221
(dp1271
g121
I1
ssg163
(dp1272
g121
I1
ssg167
(dp1273
g121
I1
ssg169
(dp1274
g121
I4
ssg171
(dp1275
g121
I5
ssg173
(dp1276
g121
I3
ssg175
(dp1277
g121
I6
ssg177
(dp1278
g121
I129
ssg179
(dp1279
g121
I1
ssg181
(dp1280
g121
I2
ssg128
(dp1281
g121
I18
ssg347
(dp1282
g121
I1
ssg186
(dp1283
g121
I2
ssg188
(dp1284
g121
I3
ssg132
(dp1285
g121
I12
ssg191
(dp1286
g121
I4
ssg193
(dp1287
g121
I3
ssg124
(dp1288
g121
I3
ssg196
(dp1289
g121
I3
ssg198
(dp1290
g121
I6
sssg78
(dp1291
g14
(dp1292
g121
I27
ssg132
(dp1293
g121
I12
ssg16
(dp1294
g121
I5
ssg204
(dp1295
g121
I1
ssg122
(dp1296
g121
I11
ssg136
(dp1297
g121
I10
ssg138
(dp1298
g121
I9
ssg140
(dp1299
g121
I17
ssg142
(dp1300
g121
I109
ssg144
(dp1301
g121
I25
ssg32
(dp1302
g121
I14
ssg323
(dp1303
g121
I2
ssg147
(dp1304
g121
I14
ssg149
(dp1305
g121
I10
ssg151
(dp1306
g121
I11
ssg153
(dp1307
g121
I12
ssg155
(dp1308
g121
I31
ssg157
(dp1309
g121
I22
ssg48
(dp1310
g121
I2
ssg159
(dp1311
g121
I22
ssg126
(dp1312
g121
I55
ssg221
(dp1313
g121
I2
ssg163
(dp1314
g121
I13
ssg165
(dp1315
g121
I12
ssg167
(dp1316
g121
I2
ssg169
(dp1317
g121
I40
ssg171
(dp1318
g121
I3
ssg173
(dp1319
g121
I20
ssg175
(dp1320
g121
I5
ssg177
(dp1321
g121
I1
ssg179
(dp1322
g121
I2334
ssg181
(dp1323
g121
I5
ssg128
(dp1324
g121
I57
ssg186
(dp1325
g121
I37
ssg188
(dp1326
g121
I27
ssg90
(dp1327
g121
I4
ssg191
(dp1328
g121
I19
ssg193
(dp1329
g121
I11
ssg354
(dp1330
g121
I1
ssg124
(dp1331
g121
I28
ssg196
(dp1332
g121
I6
sssg80
(dp1333
g14
(dp1334
g121
I9
ssg132
(dp1335
g121
I15
ssg16
(dp1336
g121
I10
ssg204
(dp1337
g121
I1
ssg122
(dp1338
g121
I14
ssg136
(dp1339
g121
I6
ssg138
(dp1340
g121
I6
ssg140
(dp1341
g121
I21
ssg142
(dp1342
g121
I10
ssg144
(dp1343
g121
I7
ssg32
(dp1344
g121
I15
ssg147
(dp1345
g121
I5
ssg149
(dp1346
g121
I17
ssg151
(dp1347
g121
I19
ssg153
(dp1348
g121
I3
ssg155
(dp1349
g121
I11
ssg157
(dp1350
g121
I7
ssg48
(dp1351
g121
I1
ssg159
(dp1352
g121
I22
ssg126
(dp1353
g121
I13
ssg221
(dp1354
g121
I1
ssg163
(dp1355
g121
I4
ssg165
(dp1356
g121
I4
ssg169
(dp1357
g121
I1
ssg171
(dp1358
g121
I5
ssg173
(dp1359
g121
I8
ssg175
(dp1360
g121
I24
ssg177
(dp1361
g121
I5
ssg179
(dp1362
g121
I3
ssg181
(dp1363
g121
I495
ssg128
(dp1364
g121
I10
ssg184
(dp1365
g121
I1
ssg347
(dp1366
g121
I1
ssg186
(dp1367
g121
I4
ssg188
(dp1368
g121
I17
ssg90
(dp1369
g121
I5
ssg191
(dp1370
g121
I23
ssg193
(dp1371
g121
I12
ssg354
(dp1372
g121
I1
ssg124
(dp1373
g121
I24
ssg196
(dp1374
g121
I7
sssg82
(dp1375
g12
(dp1376
g121
I2
ssg14
(dp1377
g121
I27
ssg132
(dp1378
g121
I7
ssg16
(dp1379
g121
I6
ssg204
(dp1380
g121
I1
ssg122
(dp1381
g121
I49
ssg136
(dp1382
g121
I62
ssg138
(dp1383
g121
I10
ssg140
(dp1384
g121
I57
ssg142
(dp1385
g121
I13
ssg144
(dp1386
g121
I8
ssg32
(dp1387
g121
I37
ssg147
(dp1388
g121
I14
ssg149
(dp1389
g121
I59
ssg151
(dp1390
g121
I18
ssg153
(dp1391
g121
I25
ssg155
(dp1392
g121
I84
ssg157
(dp1393
g121
I82
ssg159
(dp1394
g121
I61
ssg126
(dp1395
g121
I91
ssg54
(dp1396
g121
I1
ssg221
(dp1397
g121
I4
ssg163
(dp1398
g121
I12
ssg165
(dp1399
g121
I8
ssg167
(dp1400
g121
I10
ssg169
(dp1401
g121
I11
ssg171
(dp1402
g121
I32
ssg173
(dp1403
g121
I30
ssg175
(dp1404
g121
I13
ssg177
(dp1405
g121
I9
ssg179
(dp1406
g121
I12
ssg181
(dp1407
g121
I1
ssg128
(dp1408
g121
I1069
ssg186
(dp1409
g121
I15
ssg188
(dp1410
g121
I30
ssg90
(dp1411
g121
I2
ssg191
(dp1412
g121
I26
ssg193
(dp1413
g121
I35
ssg354
(dp1414
g121
I2
ssg124
(dp1415
g121
I59
ssg196
(dp1416
g121
I2
ssg198
(dp1417
g121
I5
sssg84
(dp1418
g14
(dp1419
g121
I8
ssg132
(dp1420
g121
I22
ssg16
(dp1421
g121
I3
ssg122
(dp1422
g121
I6
ssg136
(dp1423
g121
I15
ssg138
(dp1424
g121
I17
ssg140
(dp1425
g121
I67
ssg142
(dp1426
g121
I5
ssg144
(dp1427
g121
I41
ssg32
(dp1428
g121
I27
ssg147
(dp1429
g121
I17
ssg149
(dp1430
g121
I48
ssg151
(dp1431
g121
I10
ssg153
(dp1432
g121
I38
ssg155
(dp1433
g121
I30
ssg157
(dp1434
g121
I8
ssg159
(dp1435
g121
I21
ssg126
(dp1436
g121
I32
ssg163
(dp1437
g121
I9
ssg165
(dp1438
g121
I7
ssg167
(dp1439
g121
I3
ssg169
(dp1440
g121
I13
ssg171
(dp1441
g121
I3
ssg173
(dp1442
g121
I36
ssg175
(dp1443
g121
I35
ssg177
(dp1444
g121
I39
ssg179
(dp1445
g121
I3
ssg181
(dp1446
g121
I23
ssg128
(dp1447
g121
I14
ssg184
(dp1448
g121
I586
ssg347
(dp1449
g121
I4
ssg186
(dp1450
g121
I1
ssg188
(dp1451
g121
I32
ssg90
(dp1452
g121
I5
ssg191
(dp1453
g121
I33
ssg193
(dp1454
g121
I18
ssg354
(dp1455
g121
I2
ssg124
(dp1456
g121
I23
ssg196
(dp1457
g121
I11
sssg86
(dp1458
g347
(dp1459
g121
I13
ssg153
(dp1460
g121
I1
ssg186
(dp1461
g121
I2
ssg204
(dp1462
g121
I8
ssg136
(dp1463
g121
I1
ssg126
(dp1464
g121
I2
ssg138
(dp1465
g121
I8
sssg88
(dp1466
g14
(dp1467
g121
I22
ssg132
(dp1468
g121
I12
ssg16
(dp1469
g121
I48
ssg204
(dp1470
g121
I4
ssg122
(dp1471
g121
I8
ssg136
(dp1472
g121
I5
ssg138
(dp1473
g121
I16
ssg140
(dp1474
g121
I57
ssg142
(dp1475
g121
I4
ssg144
(dp1476
g121
I9
ssg32
(dp1477
g121
I8
ssg147
(dp1478
g121
I17
ssg149
(dp1479
g121
I71
ssg151
(dp1480
g121
I7
ssg153
(dp1481
g121
I10
ssg155
(dp1482
g121
I34
ssg157
(dp1483
g121
I17
ssg159
(dp1484
g121
I9
ssg126
(dp1485
g121
I512
ssg54
(dp1486
g121
I1
ssg221
(dp1487
g121
I1
ssg163
(dp1488
g121
I3
ssg165
(dp1489
g121
I7
ssg167
(dp1490
g121
I9
ssg169
(dp1491
g121
I13
ssg171
(dp1492
g121
I6
ssg173
(dp1493
g121
I6
ssg175
(dp1494
g121
I12
ssg179
(dp1495
g121
I11
ssg181
(dp1496
g121
I9
ssg128
(dp1497
g121
I19
ssg347
(dp1498
g121
I12
ssg186
(dp1499
g121
I3409
ssg188
(dp1500
g121
I8
ssg90
(dp1501
g121
I4
ssg193
(dp1502
g121
I4
ssg124
(dp1503
g121
I12
ssg191
(dp1504
g121
I15
sssg90
(dp1505
g14
(dp1506
g121
I6
ssg132
(dp1507
g121
I10
ssg16
(dp1508
g121
I1
ssg204
(dp1509
g121
I4
ssg122
(dp1510
g121
I3
ssg136
(dp1511
g121
I6
ssg138
(dp1512
g121
I3
ssg140
(dp1513
g121
I14
ssg142
(dp1514
g121
I8
ssg144
(dp1515
g121
I6
ssg32
(dp1516
g121
I29
ssg147
(dp1517
g121
I29
ssg149
(dp1518
g121
I14
ssg151
(dp1519
g121
I3
ssg153
(dp1520
g121
I3
ssg155
(dp1521
g121
I10
ssg157
(dp1522
g121
I5
ssg159
(dp1523
g121
I2
ssg126
(dp1524
g121
I12
ssg163
(dp1525
g121
I3
ssg165
(dp1526
g121
I1
ssg167
(dp1527
g121
I1
ssg169
(dp1528
g121
I2
ssg171
(dp1529
g121
I4
ssg173
(dp1530
g121
I3
ssg175
(dp1531
g121
I22
ssg179
(dp1532
g121
I3
ssg181
(dp1533
g121
I42
ssg128
(dp1534
g121
I3
ssg186
(dp1535
g121
I1
ssg188
(dp1536
g121
I3
ssg90
(dp1537
g121
I357
ssg193
(dp1538
g121
I3
ssg124
(dp1539
g121
I3
ssg191
(dp1540
g121
I10
sssg92
(dp1541
g14
(dp1542
g121
I18
ssg132
(dp1543
g121
I31
ssg16
(dp1544
g121
I8
ssg204
(dp1545
g121
I3
ssg122
(dp1546
g121
I17
ssg136
(dp1547
g121
I22
ssg138
(dp1548
g121
I12
ssg140
(dp1549
g121
I28
ssg142
(dp1550
g121
I21
ssg144
(dp1551
g121
I22
ssg32
(dp1552
g121
I23
ssg147
(dp1553
g121
I22
ssg149
(dp1554
g121
I34
ssg151
(dp1555
g121
I14
ssg153
(dp1556
g121
I14
ssg155
(dp1557
g121
I50
ssg157
(dp1558
g121
I23
ssg159
(dp1559
g121
I53
ssg126
(dp1560
g121
I35
ssg221
(dp1561
g121
I1
ssg163
(dp1562
g121
I3
ssg165
(dp1563
g121
I5
ssg167
(dp1564
g121
I25
ssg169
(dp1565
g121
I30
ssg171
(dp1566
g121
I12
ssg173
(dp1567
g121
I30
ssg175
(dp1568
g121
I13
ssg177
(dp1569
g121
I4
ssg179
(dp1570
g121
I27
ssg181
(dp1571
g121
I8
ssg128
(dp1572
g121
I30
ssg184
(dp1573
g121
I10
ssg347
(dp1574
g121
I1
ssg186
(dp1575
g121
I21
ssg188
(dp1576
g121
I822
ssg90
(dp1577
g121
I7
ssg191
(dp1578
g121
I20
ssg193
(dp1579
g121
I16
ssg354
(dp1580
g121
I2
ssg124
(dp1581
g121
I56
ssg196
(dp1582
g121
I11
ssg198
(dp1583
g121
I1
sssg94
(dp1584
g14
(dp1585
g121
I151
ssg132
(dp1586
g121
I56
ssg16
(dp1587
g121
I27
ssg204
(dp1588
g121
I2
ssg122
(dp1589
g121
I270
ssg136
(dp1590
g121
I136
ssg138
(dp1591
g121
I22
ssg140
(dp1592
g121
I109
ssg142
(dp1593
g121
I37
ssg144
(dp1594
g121
I35
ssg32
(dp1595
g121
I39
ssg147
(dp1596
g121
I39
ssg149
(dp1597
g121
I289
ssg151
(dp1598
g121
I31
ssg153
(dp1599
g121
I77
ssg155
(dp1600
g121
I9188
ssg157
(dp1601
g121
I97
ssg159
(dp1602
g121
I125
ssg126
(dp1603
g121
I164
ssg221
(dp1604
g121
I10
ssg184
(dp1605
g121
I4
ssg163
(dp1606
g121
I37
ssg165
(dp1607
g121
I14
ssg167
(dp1608
g121
I8
ssg169
(dp1609
g121
I39
ssg171
(dp1610
g121
I15
ssg173
(dp1611
g121
I93
ssg175
(dp1612
g121
I10
ssg177
(dp1613
g121
I6
ssg179
(dp1614
g121
I48
ssg181
(dp1615
g121
I13
ssg128
(dp1616
g121
I90
ssg58
(dp1617
g121
I1
ssg347
(dp1618
g121
I1
ssg186
(dp1619
g121
I63
ssg188
(dp1620
g121
I64
ssg90
(dp1621
g121
I7
ssg191
(dp1622
g121
I77
ssg193
(dp1623
g121
I140
ssg354
(dp1624
g121
I6
ssg124
(dp1625
g121
I145
ssg196
(dp1626
g121
I24
ssg445
(dp1627
g121
I2
ssg198
(dp1628
g121
I120
sssg96
(dp1629
g14
(dp1630
g121
I32
ssg132
(dp1631
g121
I27
ssg16
(dp1632
g121
I13
ssg122
(dp1633
g121
I28
ssg136
(dp1634
g121
I21
ssg138
(dp1635
g121
I5
ssg140
(dp1636
g121
I55
ssg142
(dp1637
g121
I13
ssg144
(dp1638
g121
I55
ssg32
(dp1639
g121
I54
ssg147
(dp1640
g121
I32
ssg149
(dp1641
g121
I31
ssg151
(dp1642
g121
I14
ssg153
(dp1643
g121
I46
ssg155
(dp1644
g121
I61
ssg157
(dp1645
g121
I21
ssg48
(dp1646
g121
I7
ssg159
(dp1647
g121
I34
ssg126
(dp1648
g121
I16
ssg221
(dp1649
g121
I3
ssg163
(dp1650
g121
I16
ssg165
(dp1651
g121
I6
ssg167
(dp1652
g121
I6
ssg169
(dp1653
g121
I8
ssg171
(dp1654
g121
I7
ssg173
(dp1655
g121
I22
ssg175
(dp1656
g121
I9
ssg177
(dp1657
g121
I2
ssg179
(dp1658
g121
I16
ssg181
(dp1659
g121
I13
ssg128
(dp1660
g121
I28
ssg184
(dp1661
g121
I2
ssg186
(dp1662
g121
I16
ssg188
(dp1663
g121
I17
ssg90
(dp1664
g121
I7
ssg191
(dp1665
g121
I1554
ssg193
(dp1666
g121
I7
ssg354
(dp1667
g121
I3
ssg124
(dp1668
g121
I59
ssg196
(dp1669
g121
I7
sssg98
(dp1670
g149
(dp1671
g121
I3
ssg167
(dp1672
g121
I1
ssg128
(dp1673
g121
I5
ssg14
(dp1674
g121
I1
ssg155
(dp1675
g121
I1
ssg157
(dp1676
g121
I2
ssg165
(dp1677
g121
I2
ssg98
(dp1678
g121
I1
ssg124
(dp1679
g121
I2
ssg140
(dp1680
g121
I1
ssg191
(dp1681
g121
I15
ssg32
(dp1682
g121
I3
ssg323
(dp1683
g121
I2
sssg100
(dp1684
g14
(dp1685
g121
I5
ssg132
(dp1686
g121
I9
ssg16
(dp1687
g121
I18
ssg204
(dp1688
g121
I3
ssg122
(dp1689
g121
I25
ssg136
(dp1690
g121
I20
ssg138
(dp1691
g121
I26
ssg140
(dp1692
g121
I76
ssg142
(dp1693
g121
I23
ssg144
(dp1694
g121
I19
ssg32
(dp1695
g121
I11
ssg147
(dp1696
g121
I5
ssg149
(dp1697
g121
I35
ssg151
(dp1698
g121
I8
ssg153
(dp1699
g121
I16
ssg155
(dp1700
g121
I100
ssg157
(dp1701
g121
I35
ssg48
(dp1702
g121
I1
ssg159
(dp1703
g121
I13
ssg126
(dp1704
g121
I29
ssg163
(dp1705
g121
I7
ssg165
(dp1706
g121
I7
ssg167
(dp1707
g121
I3
ssg169
(dp1708
g121
I10
ssg171
(dp1709
g121
I7
ssg173
(dp1710
g121
I11
ssg175
(dp1711
g121
I39
ssg177
(dp1712
g121
I11
ssg179
(dp1713
g121
I4
ssg181
(dp1714
g121
I11
ssg128
(dp1715
g121
I12
ssg184
(dp1716
g121
I8
ssg186
(dp1717
g121
I18
ssg188
(dp1718
g121
I18
ssg90
(dp1719
g121
I13
ssg191
(dp1720
g121
I15
ssg193
(dp1721
g121
I1095
ssg354
(dp1722
g121
I4
ssg124
(dp1723
g121
I26
ssg196
(dp1724
g121
I12
ssg198
(dp1725
g121
I1
sssg102
(dp1726
g149
(dp1727
g121
I2
ssg155
(dp1728
g121
I2
ssg157
(dp1729
g121
I1
ssg132
(dp1730
g121
I1
ssg159
(dp1731
g121
I1
ssg354
(dp1732
g121
I25
ssg136
(dp1733
g121
I1
ssg126
(dp1734
g121
I1
ssg124
(dp1735
g121
I1
sssg104
(dp1736
g14
(dp1737
g121
I23
ssg132
(dp1738
g121
I26
ssg16
(dp1739
g121
I55
ssg204
(dp1740
g121
I2
ssg122
(dp1741
g121
I74
ssg136
(dp1742
g121
I1772
ssg138
(dp1743
g121
I40
ssg140
(dp1744
g121
I43
ssg142
(dp1745
g121
I32
ssg144
(dp1746
g121
I30
ssg32
(dp1747
g121
I43
ssg147
(dp1748
g121
I29
ssg149
(dp1749
g121
I76
ssg151
(dp1750
g121
I11
ssg153
(dp1751
g121
I29
ssg155
(dp1752
g121
I114
ssg157
(dp1753
g121
I130
ssg159
(dp1754
g121
I64
ssg126
(dp1755
g121
I35
ssg54
(dp1756
g121
I1
ssg221
(dp1757
g121
I5
ssg163
(dp1758
g121
I17
ssg165
(dp1759
g121
I12
ssg167
(dp1760
g121
I7
ssg169
(dp1761
g121
I14
ssg171
(dp1762
g121
I16
ssg173
(dp1763
g121
I52
ssg175
(dp1764
g121
I14
ssg177
(dp1765
g121
I6
ssg179
(dp1766
g121
I12
ssg181
(dp1767
g121
I4
ssg128
(dp1768
g121
I77
ssg186
(dp1769
g121
I14
ssg188
(dp1770
g121
I21
ssg90
(dp1771
g121
I6
ssg191
(dp1772
g121
I22
ssg193
(dp1773
g121
I33
ssg354
(dp1774
g121
I2
ssg124
(dp1775
g121
I113
ssg196
(dp1776
g121
I17
ssg198
(dp1777
g121
I2
sssg106
(dp1778
g14
(dp1779
g121
I4
ssg132
(dp1780
g121
I11
ssg16
(dp1781
g121
I6
ssg204
(dp1782
g121
I4
ssg122
(dp1783
g121
I8
ssg136
(dp1784
g121
I24
ssg138
(dp1785
g121
I5
ssg140
(dp1786
g121
I27
ssg142
(dp1787
g121
I10
ssg144
(dp1788
g121
I6
ssg32
(dp1789
g121
I15
ssg147
(dp1790
g121
I7
ssg149
(dp1791
g121
I35
ssg151
(dp1792
g121
I7
ssg153
(dp1793
g121
I7
ssg155
(dp1794
g121
I20
ssg157
(dp1795
g121
I28
ssg48
(dp1796
g121
I1
ssg159
(dp1797
g121
I69
ssg126
(dp1798
g121
I14
ssg221
(dp1799
g121
I5
ssg163
(dp1800
g121
I8
ssg165
(dp1801
g121
I4
ssg167
(dp1802
g121
I2
ssg169
(dp1803
g121
I33
ssg171
(dp1804
g121
I12
ssg173
(dp1805
g121
I8
ssg175
(dp1806
g121
I9
ssg177
(dp1807
g121
I3
ssg179
(dp1808
g121
I1
ssg181
(dp1809
g121
I6
ssg128
(dp1810
g121
I16
ssg186
(dp1811
g121
I6
ssg188
(dp1812
g121
I18
ssg90
(dp1813
g121
I3
ssg191
(dp1814
g121
I23
ssg193
(dp1815
g121
I4
ssg354
(dp1816
g121
I1
ssg124
(dp1817
g121
I34
ssg196
(dp1818
g121
I768
ssg198
(dp1819
g121
I2
sssg108
(dp1820
g193
(dp1821
g121
I1
ssg445
(dp1822
g121
I5
sssg110
(dp1823
sg112
(dp1824
g14
(dp1825
g121
I13
ssg122
(dp1826
g121
I7
ssg136
(dp1827
g121
I4
ssg138
(dp1828
g121
I3
ssg140
(dp1829
g121
I25
ssg142
(dp1830
g121
I5
ssg144
(dp1831
g121
I3
ssg32
(dp1832
g121
I2
ssg147
(dp1833
g121
I7
ssg149
(dp1834
g121
I18
ssg151
(dp1835
g121
I3
ssg153
(dp1836
g121
I9
ssg155
(dp1837
g121
I228
ssg157
(dp1838
g121
I3
ssg159
(dp1839
g121
I20
ssg126
(dp1840
g121
I9
ssg221
(dp1841
g121
I1
ssg163
(dp1842
g121
I4
ssg167
(dp1843
g121
I3
ssg169
(dp1844
g121
I10
ssg171
(dp1845
g121
I4
ssg173
(dp1846
g121
I5
ssg175
(dp1847
g121
I5
ssg177
(dp1848
g121
I11
ssg179
(dp1849
g121
I5
ssg181
(dp1850
g121
I6
ssg128
(dp1851
g121
I25
ssg186
(dp1852
g121
I7
ssg188
(dp1853
g121
I3
ssg132
(dp1854
g121
I5
ssg191
(dp1855
g121
I22
ssg193
(dp1856
g121
I2
ssg354
(dp1857
g121
I1
ssg124
(dp1858
g121
I13
ssg196
(dp1859
g121
I2
ssg198
(dp1860
g121
I700
ssssS'_succ'
p1861
(dp1862
g12
(dp1863
g12
g120
sg82
g1376
sg44
g746
ssg14
(dp1864
V\u81ea\u52a8\u5316\u7cfb
p1865
g131
sg132
g747
sg16
g201
sg20
g270
sg22
g312
sg24
g360
sg26
g403
sg28
g449
sg30
g493
sg32
g533
sg36
g580
sg38
g620
sg40
g662
sg42
g704
sg94
g1585
sg46
g789
sg50
g835
sg52
g882
sg56
g934
sg60
g971
sg62
g1013
sg66
g1051
sg68
g1086
sg70
g1130
sg72
g1169
sg74
g1211
sg76
g1253
sg78
g1292
sg80
g1334
sV\u7f8e\u672f\u5b66\u9662
p1866
g1377
sg84
g1419
sg88
g1467
sg92
g1542
sg90
g1506
sg96
g1630
sg98
g1674
sg100
g1685
sg104
g1737
sg106
g1779
sg112
g1825
ssg16
(dp1867
V\u81ea\u52a8\u5316\u7cfb
p1868
g134
sg16
g203
sg18
g244
sg20
g272
sV\u65b0\u95fb\u5b66\u9662
p1869
g1739
sV\u5316\u5b66\u7cfb
p1870
g362
sV\u7535\u5b50\u7cfb
p1871
g405
sg28
g451
sV\u7535\u673a\u7cfb
p1872
g495
sg32
g535
sV\u571f\u6728\u7cfb
p1873
g1587
sV\u822a\u9662
p1874
g582
sV\u7ecf\u7ba1\u5b66\u9662
p1875
g622
sg40
g664
sV\u8f6f\u4ef6\u5b66\u9662
p1876
g706
sV\u6c34\u5229\u7cfb
p1877
g749
sV\u6cd5\u5b66\u9662
p1878
g791
sV\u4eba\u6587\u5b66\u9662
p1879
g837
sV\u751f\u547d\u5b66\u9662
p1880
g884
sV\u4e2d\u6587\u7cfb
p1881
g935
sV\u6559\u7814\u9662
p1882
g973
sV\u516c\u7ba1\u5b66\u9662
p1883
g1014
sV\u5fae\u7eb3\u7535\u5b50\u7cfb
p1884
g1053
sV\u73af\u5883\u5b66\u9662
p1885
g1088
sV\u6c7d\u8f66\u7cfb
p1886
g1132
sV\u5316\u5de5\u7cfb
p1887
g1171
sV\u7269\u7406\u7cfb
p1888
g1213
sV\u673a\u68b0\u5b66\u9662
p1889
g1254
sV\u6838\u7814\u9662
p1890
g1294
sV\u6570\u5b66\u7cfb
p1891
g1336
sV\u7f8e\u672f\u5b66\u9662
p1892
g1379
sV\u9a6c\u514b\u601d\u4e3b\u4e49\u5b66\u9662
p1893
g1421
sV\u533b\u5b66\u9662
p1894
g1469
sV\u5de5\u7269\u7cfb
p1895
g1544
sg90
g1508
sV\u5916\u6587\u7cfb
p1896
g1781
sV\u6750\u6599\u5b66\u9662
p1897
g1687
sV\u793e\u79d1\u5b66\u9662
p1898
g314
sV\u5efa\u7b51\u5b66\u9662
p1899
g1632
ssg18
(dp1900
g16
g205
sV\u751f\u533b\u7cfb
p1901
g245
sV\u5de5\u4e1a\u5de5\u7a0b\u7cfb
p1902
g273
sV\u65b0\u95fb\u5b66\u9662
p1903
g1740
sV\u5316\u5b66\u7cfb
p1904
g363
sV\u7535\u5b50\u7cfb
p1905
g406
sV\u70ed\u80fd\u7cfb
p1906
g452
sV\u822a\u9662
p1907
g583
sV\u673a\u68b0\u7cfb
p1908
g665
sV\u8f6f\u4ef6\u5b66\u9662
p1909
g707
sV\u571f\u6728\u7cfb
p1910
g1588
sV\u6cd5\u5b66\u9662
p1911
g792
sV\u4eba\u6587\u5b66\u9662
p1912
g838
sV\u751f\u547d\u5b66\u9662
p1913
g885
sV\u6559\u7814\u9662
p1914
g974
sV\u73af\u5883\u5b66\u9662
p1915
g1089
sV\u5316\u5de5\u7cfb
p1916
g1172
sV\u673a\u68b0\u5b66\u9662
p1917
g1255
sV\u6838\u7814\u9662
p1918
g1295
sV\u6570\u5b66\u7cfb
p1919
g1337
sV\u7f8e\u672f\u5b66\u9662
p1920
g1380
sg86
g1462
sV\u533b\u5b66\u9662
p1921
g1470
sV\u5de5\u7269\u7cfb
p1922
g1545
sg90
g1509
sV\u6750\u6599\u5b66\u9662
p1923
g1688
sV\u793e\u79d1\u5b66\u9662
p1924
g315
sV\u5916\u6587\u7cfb
p1925
g1782
ssg20
(dp1926
g12
g123
sV\u81ea\u52a8\u5316\u7cfb
p1927
g135
sg16
g206
sV\u5de5\u4e1a\u5de5\u7a0b\u7cfb
p1928
g274
sV\u793e\u79d1\u5b66\u9662
p1929
g316
sV\u5316\u5b66\u7cfb
p1930
g364
sg26
g407
sV\u70ed\u80fd\u7cfb
p1931
g453
sV\u7535\u673a\u7cfb
p1932
g496
sg32
g536
sV\u822a\u9662
p1933
g584
sV\u7ecf\u7ba1\u5b66\u9662
p1934
g623
sV\u673a\u68b0\u7cfb
p1935
g666
sV\u8f6f\u4ef6\u5b66\u9662
p1936
g708
sV\u6c34\u5229\u7cfb
p1937
g750
sV\u6cd5\u5b66\u9662
p1938
g793
sV\u4eba\u6587\u5b66\u9662
p1939
g839
sV\u751f\u547d\u5b66\u9662
p1940
g886
sV\u4e2d\u6587\u7cfb
p1941
g936
sg84
g1422
sg163
g975
sV\u516c\u7ba1\u5b66\u9662
p1942
g1015
sV\u5fae\u7eb3\u7535\u5b50\u7cfb
p1943
g1054
sg1885
g1090
sV\u6c7d\u8f66\u7cfb
p1944
g1133
sV\u5316\u5de5\u7cfb
p1945
g1173
sg1888
g1214
sV\u673a\u68b0\u5b66\u9662
p1946
g1256
sg112
g1826
sV\u6570\u5b66\u7cfb
p1947
g1338
sV\u7f8e\u672f\u5b66\u9662
p1948
g1381
sg58
g965
sV\u533b\u5b66\u9662
p1949
g1471
sg90
g1510
sV\u5de5\u7269\u7cfb
p1950
g1546
sV\u571f\u6728\u7cfb
p1951
g1589
sV\u5efa\u7b51\u5b66\u9662
p1952
g1633
sV\u6750\u6599\u5b66\u9662
p1953
g1689
sV\u65b0\u95fb\u5b66\u9662
p1954
g1741
sV\u5916\u6587\u7cfb
p1955
g1783
sV\u6838\u7814\u9662
p1956
g1296
ssg22
(dp1957
g12
g125
sV\u81ea\u52a8\u5316\u7cfb
p1958
g195
sV\u7cbe\u4eea\u7cfb
p1959
g240
sV\u751f\u533b\u7cfb
p1960
g267
sg20
g308
sV\u65b0\u95fb\u5b66\u9662
p1961
g1775
sV\u5316\u5b66\u7cfb
p1962
g399
sV\u7535\u5b50\u7cfb
p1963
g443
sV\u70ed\u80fd\u7cfb
p1964
g489
sg1932
g529
sg32
g571
sV\u571f\u6728\u7cfb
p1965
g1625
sV\u822a\u9662
p1966
g617
sV\u7ecf\u7ba1\u5b66\u9662
p1967
g658
sV\u673a\u68b0\u7cfb
p1968
g700
sg42
g741
sV\u6c34\u5229\u7cfb
p1969
g785
sg157
g829
sV\u4eba\u6587\u5b66\u9662
p1970
g878
sV\u751f\u547d\u5b66\u9662
p1971
g923
sV\u4e2d\u6587\u7cfb
p1972
g962
sV\u6559\u7814\u9662
p1973
g1009
sV\u516c\u7ba1\u5b66\u9662
p1974
g1047
sV\u5fae\u7eb3\u7535\u5b50\u7cfb
p1975
g1055
sV\u73af\u5883\u5b66\u9662
p1976
g1126
sV\u6c7d\u8f66\u7cfb
p1977
g1166
sg1945
g1207
sV\u7269\u7406\u7cfb
p1978
g1249
sV\u673a\u68b0\u5b66\u9662
p1979
g1288
sV\u5efa\u7ba1\u7cfb
p1980
g1858
sV\u6570\u5b66\u7cfb
p1981
g1373
sV\u7f8e\u672f\u5b66\u9662
p1982
g1415
sg184
g1456
sV\u533b\u5b66\u9662
p1983
g1503
sV\u5de5\u7269\u7cfb
p1984
g1581
sg90
g1539
sg1955
g1817
sg98
g1679
sV\u6750\u6599\u5b66\u9662
p1985
g1723
sV\u91d1\u878d\u5b66\u9662
p1986
g1735
sg124
g356
sV\u5efa\u7b51\u5b66\u9662
p1987
g1668
sV\u6838\u7814\u9662
p1988
g1331
ssg24
(dp1989
V\u81ea\u52a8\u5316\u7cfb
p1990
g139
sg16
g208
sg18
g247
sV\u5de5\u4e1a\u5de5\u7a0b\u7cfb
p1991
g276
sg104
g1743
sg138
g366
sV\u7535\u5b50\u7cfb
p1992
g409
sV\u70ed\u80fd\u7cfb
p1993
g455
sV\u7535\u673a\u7cfb
p1994
g498
sg32
g538
sV\u822a\u9662
p1995
g586
sV\u7ecf\u7ba1\u5b66\u9662
p1996
g625
sg1968
g668
sV\u8f6f\u4ef6\u5b66\u9662
p1997
g710
sV\u571f\u6728\u7cfb
p1998
g1591
sV\u6cd5\u5b66\u9662
p1999
g795
sV\u4eba\u6587\u5b66\u9662
p2000
g841
sV\u751f\u547d\u5b66\u9662
p2001
g888
sg54
g929
sV\u4e2d\u6587\u7cfb
p2002
g938
sg163
g977
sV\u516c\u7ba1\u5b66\u9662
p2003
g1017
sV\u73af\u5883\u5b66\u9662
p2004
g1092
sV\u6c7d\u8f66\u7cfb
p2005
g1135
sV\u5316\u5de5\u7cfb
p2006
g1175
sV\u7269\u7406\u7cfb
p2007
g1216
sV\u673a\u68b0\u5b66\u9662
p2008
g1258
sV\u5efa\u7ba1\u7cfb
p2009
g1828
sg1891
g1340
sV\u7f8e\u672f\u5b66\u9662
p2010
g1383
sg84
g1424
sV\u836f\u5b66\u9662
p2011
g1465
sg1894
g1473
sg90
g1512
sV\u5de5\u7269\u7cfb
p2012
g1548
sV\u6c34\u5229\u7cfb
p2013
g752
sV\u5916\u6587\u7cfb
p2014
g1785
sV\u6750\u6599\u5b66\u9662
p2015
g1691
sg22
g318
sV\u5efa\u7b51\u5b66\u9662
p2016
g1635
sV\u6838\u7814\u9662
p2017
g1298
ssg26
(dp2018
V\u81ea\u52a8\u5316\u7cfb
p2019
g141
sg16
g209
sg1901
g248
sg1928
g277
sg124
g319
sg1962
g367
sg1963
g410
sV\u70ed\u80fd\u7cfb
p2020
g456
sV\u7535\u673a\u7cfb
p2021
g499
sg32
g539
sV\u571f\u6728\u7cfb
p2022
g1592
sg34
g576
sg1966
g587
sg66
g1056
sV\u673a\u68b0\u7cfb
p2023
g669
sg1876
g711
sg1877
g753
sg1878
g796
sV\u4eba\u6587\u5b66\u9662
p2024
g842
sV\u751f\u547d\u5b66\u9662
p2025
g889
sV\u4e2d\u6587\u7cfb
p2026
g939
sV\u9a6c\u514b\u601d\u4e3b\u4e49\u5b66\u9662
p2027
g1425
sg1973
g978
sg1974
g1018
sV\u7ecf\u7ba1\u5b66\u9662
p2028
g626
sV\u73af\u5883\u5b66\u9662
p2029
g1093
sg1886
g1136
sV\u5316\u5de5\u7cfb
p2030
g1176
sV\u7269\u7406\u7cfb
p2031
g1217
sV\u673a\u68b0\u5b66\u9662
p2032
g1259
sV\u6838\u7814\u9662
p2033
g1299
sg1891
g1341
sg1892
g1384
sg58
g967
sg1894
g1474
sV\u5de5\u7269\u7cfb
p2034
g1549
sg90
g1513
sg1952
g1636
sg98
g1680
sV\u6750\u6599\u5b66\u9662
p2035
g1692
sV\u65b0\u95fb\u5b66\u9662
p2036
g1744
sV\u5916\u6587\u7cfb
p2037
g1786
sg112
g1829
ssg28
(dp2038
g14
g143
sg1959
g210
sg20
g278
sV\u793e\u79d1\u5b66\u9662
p2039
g320
sg1930
g368
sg1871
g411
sg2020
g457
sV\u7535\u673a\u7cfb
p2040
g500
sg32
g540
sV\u822a\u9662
p2041
g588
sV\u7ecf\u7ba1\u5b66\u9662
p2042
g627
sg1968
g670
sV\u8f6f\u4ef6\u5b66\u9662
p2043
g712
sg132
g754
sV\u6cd5\u5b66\u9662
p2044
g797
sV\u4eba\u6587\u5b66\u9662
p2045
g843
sV\u751f\u547d\u5b66\u9662
p2046
g890
sg184
g1426
sg163
g979
sg1942
g1019
sV\u5fae\u7eb3\u7535\u5b50\u7cfb
p2047
g1057
sg1885
g1094
sV\u6c7d\u8f66\u7cfb
p2048
g1137
sV\u5316\u5de5\u7cfb
p2049
g1177
sV\u7269\u7406\u7cfb
p2050
g1218
sg1889
g1260
sV\u6838\u7814\u9662
p2051
g1300
sV\u6570\u5b66\u7cfb
p2052
g1342
sV\u7f8e\u672f\u5b66\u9662
p2053
g1385
sg58
g968
sV\u533b\u5b66\u9662
p2054
g1475
sg90
g1514
sV\u5de5\u7269\u7cfb
p2055
g1550
sV\u571f\u6728\u7cfb
p2056
g1593
sg1952
g1637
sV\u6750\u6599\u5b66\u9662
p2057
g1693
sg1954
g1745
sV\u5916\u6587\u7cfb
p2058
g1787
sV\u5efa\u7ba1\u7cfb
p2059
g1830
ssg30
(dp2060
V\u81ea\u52a8\u5316\u7cfb
p2061
g145
sV\u7cbe\u4eea\u7cfb
p2062
g211
sV\u751f\u533b\u7cfb
p2063
g249
sV\u5de5\u4e1a\u5de5\u7a0b\u7cfb
p2064
g279
sV\u65b0\u95fb\u5b66\u9662
p2065
g1746
sV\u5316\u5b66\u7cfb
p2066
g369
sg1871
g412
sV\u70ed\u80fd\u7cfb
p2067
g458
sV\u7535\u673a\u7cfb
p2068
g501
sg32
g541
sg2056
g1594
sV\u822a\u9662
p2069
g589
sV\u7ecf\u7ba1\u5b66\u9662
p2070
g628
sV\u673a\u68b0\u7cfb
p2071
g671
sV\u8f6f\u4ef6\u5b66\u9662
p2072
g713
sg1969
g755
sg157
g798
sV\u4eba\u6587\u5b66\u9662
p2073
g844
sV\u751f\u547d\u5b66\u9662
p2074
g891
sg56
g940
sg163
g980
sV\u516c\u7ba1\u5b66\u9662
p2075
g1020
sg66
g1058
sV\u73af\u5883\u5b66\u9662
p2076
g1095
sg1977
g1138
sV\u5316\u5de5\u7cfb
p2077
g1178
sV\u7269\u7406\u7cfb
p2078
g1219
sV\u673a\u68b0\u5b66\u9662
p2079
g1261
sg2033
g1301
sV\u6570\u5b66\u7cfb
p2080
g1343
sV\u7f8e\u672f\u5b66\u9662
p2081
g1386
sg1893
g1427
sV\u533b\u5b66\u9662
p2082
g1476
sg1895
g1551
sg90
g1515
sV\u5efa\u7b51\u5b66\u9662
p2083
g1638
sg1897
g1694
sV\u793e\u79d1\u5b66\u9662
p2084
g321
sV\u5916\u6587\u7cfb
p2085
g1788
sV\u5efa\u7ba1\u7cfb
p2086
g1831
ssg32
(dp2087
V\u81ea\u52a8\u5316\u7cfb
p2088
g146
sg16
g212
sV\u5de5\u4e1a\u5de5\u7a0b\u7cfb
p2089
g280
sV\u65b0\u95fb\u5b66\u9662
p2090
g1747
sV\u5316\u5b66\u7cfb
p2091
g370
sg1871
g413
sV\u70ed\u80fd\u7cfb
p2092
g459
sV\u7535\u673a\u7cfb
p2093
g502
sg32
g542
sg1907
g590
sV\u7ecf\u7ba1\u5b66\u9662
p2094
g629
sV\u673a\u68b0\u7cfb
p2095
g672
sg42
g714
sV\u6c34\u5229\u7cfb
p2096
g756
sg157
g799
sg1970
g845
sV\u751f\u547d\u5b66\u9662
p2097
g892
sV\u4e2d\u6587\u7cfb
p2098
g941
sg163
g981
sV\u516c\u7ba1\u5b66\u9662
p2099
g1021
sg2047
g1059
sg68
g1096
sV\u6c7d\u8f66\u7cfb
p2100
g1139
sg2030
g1179
sg1978
g1220
sg2079
g1262
sV\u6838\u7814\u9662
p2101
g1302
sg1891
g1344
sV\u7f8e\u672f\u5b66\u9662
p2102
g1387
sg184
g1428
sV\u533b\u5b66\u9662
p2103
g1477
sg90
g1516
sV\u5de5\u7269\u7cfb
p2104
g1552
sV\u571f\u6728\u7cfb
p2105
g1595
sV\u5916\u6587\u7cfb
p2106
g1789
sg98
g1682
sV\u6750\u6599\u5b66\u9662
p2107
g1695
sV\u793e\u79d1\u5b66\u9662
p2108
g322
sg1987
g1639
sV\u5efa\u7ba1\u7cfb
p2109
g1832
ssg34
(dp2110
V\u6c34\u5229\u7cfb
p2111
g757
sg98
g1683
sV\u4eba\u6587\u5b66\u9662
p2112
g846
sV\u793e\u79d1\u5b66\u9662
p2113
g324
sV\u751f\u547d\u5b66\u9662
p2114
g893
sV\u6838\u7814\u9662
p2115
g1303
sg323
g575
ssg36
(dp2116
V\u81ea\u52a8\u5316\u7cfb
p2117
g148
sg16
g213
sg1960
g250
sg2064
g281
sV\u65b0\u95fb\u5b66\u9662
p2118
g1748
sg138
g371
sV\u7535\u5b50\u7cfb
p2119
g414
sV\u70ed\u80fd\u7cfb
p2120
g460
sg1932
g503
sg32
g543
sg34
g577
sg147
g591
sV\u7ecf\u7ba1\u5b66\u9662
p2121
g630
sg1968
g673
sg1936
g715
sV\u6c34\u5229\u7cfb
p2122
g758
sV\u6cd5\u5b66\u9662
p2123
g800
sV\u4eba\u6587\u5b66\u9662
p2124
g847
sg2097
g894
sV\u4e2d\u6587\u7cfb
p2125
g942
sV\u6559\u7814\u9662
p2126
g982
sV\u516c\u7ba1\u5b66\u9662
p2127
g1022
sg1884
g1060
sg1976
g1097
sV\u6c7d\u8f66\u7cfb
p2128
g1140
sg72
g1180
sV\u7269\u7406\u7cfb
p2129
g1221
sg2008
g1263
sg78
g1304
sg1891
g1345
sg1866
g1388
sV\u9a6c\u514b\u601d\u4e3b\u4e49\u5b66\u9662
p2130
g1429
sV\u533b\u5b66\u9662
p2131
g1478
sg90
g1517
sg1950
g1553
sV\u571f\u6728\u7cfb
p2132
g1596
sg1987
g1640
sV\u6750\u6599\u5b66\u9662
p2133
g1696
sV\u793e\u79d1\u5b66\u9662
p2134
g325
sV\u5916\u6587\u7cfb
p2135
g1790
sV\u5efa\u7ba1\u7cfb
p2136
g1833
ssg38
(dp2137
V\u81ea\u52a8\u5316\u7cfb
p2138
g150
sV\u7cbe\u4eea\u7cfb
p2139
g214
sg1901
g251
sV\u5de5\u4e1a\u5de5\u7a0b\u7cfb
p2140
g282
sV\u793e\u79d1\u5b66\u9662
p2141
g326
sg2066
g372
sg1963
g415
sV\u70ed\u80fd\u7cfb
p2142
g461
sV\u7535\u673a\u7cfb
p2143
g504
sg32
g544
sV\u822a\u9662
p2144
g592
sg2070
g631
sg1968
g674
sV\u8f6f\u4ef6\u5b66\u9662
p2145
g716
sg132
g759
sV\u6cd5\u5b66\u9662
p2146
g801
sV\u4eba\u6587\u5b66\u9662
p2147
g848
sg1940
g895
sV\u4e2d\u6587\u7cfb
p2148
g943
sV\u6559\u7814\u9662
p2149
g983
sg2127
g1023
sg1975
g1061
sg1885
g1098
sg1977
g1141
sV\u5316\u5de5\u7cfb
p2150
g1181
sg2031
g1222
sg1889
g1264
sg2086
g1834
sg1981
g1346
sV\u7f8e\u672f\u5b66\u9662
p2151
g1389
sg184
g1430
sV\u533b\u5b66\u9662
p2152
g1479
sg90
g1518
sV\u5de5\u7269\u7cfb
p2153
g1554
sV\u571f\u6728\u7cfb
p2154
g1597
sg1925
g1791
sg98
g1671
sg1985
g1697
sV\u91d1\u878d\u5b66\u9662
p2155
g1727
sV\u65b0\u95fb\u5b66\u9662
p2156
g1749
sg1987
g1641
sV\u6838\u7814\u9662
p2157
g1305
ssg40
(dp2158
g2138
g152
sV\u7cbe\u4eea\u7cfb
p2159
g215
sV\u5de5\u4e1a\u5de5\u7a0b\u7cfb
p2160
g283
sg22
g327
sg138
g373
sV\u7535\u5b50\u7cfb
p2161
g416
sg1964
g462
sV\u7535\u673a\u7cfb
p2162
g505
sg32
g545
sg1874
g593
sg2070
g632
sV\u673a\u68b0\u7cfb
p2163
g675
sV\u8f6f\u4ef6\u5b66\u9662
p2164
g717
sV\u6c34\u5229\u7cfb
p2165
g760
sV\u6cd5\u5b66\u9662
p2166
g802
sV\u4eba\u6587\u5b66\u9662
p2167
g849
sV\u751f\u547d\u5b66\u9662
p2168
g896
sg2125
g944
sg2149
g984
sV\u516c\u7ba1\u5b66\u9662
p2169
g1024
sV\u73af\u5883\u5b66\u9662
p2170
g1099
sV\u6c7d\u8f66\u7cfb
p2171
g1142
sg1916
g1182
sV\u7269\u7406\u7cfb
p2172
g1223
sg1979
g1265
sg2033
g1306
sg1981
g1347
sV\u7f8e\u672f\u5b66\u9662
p2173
g1390
sg184
g1431
sg2103
g1480
sg90
g1519
sV\u5de5\u7269\u7cfb
p2174
g1555
sg2056
g1598
sV\u5efa\u7b51\u5b66\u9662
p2175
g1642
sg2015
g1698
sg2156
g1750
sg2135
g1792
sV\u5efa\u7ba1\u7cfb
p2176
g1835
ssg42
(dp2177
V\u81ea\u52a8\u5316\u7cfb
p2178
g154
sV\u6c34\u5229\u7cfb
p2179
g761
sV\u7cbe\u4eea\u7cfb
p2180
g216
sg1901
g252
sg20
g284
sV\u793e\u79d1\u5b66\u9662
p2181
g328
sg1962
g374
sg26
g417
sV\u70ed\u80fd\u7cfb
p2182
g463
sV\u7535\u673a\u7cfb
p2183
g506
sg32
g546
sg1995
g594
sV\u7ecf\u7ba1\u5b66\u9662
p2184
g633
sg40
g676
sg1876
g718
sg2154
g1599
sg2123
g803
sV\u4eba\u6587\u5b66\u9662
p2185
g850
sg52
g897
sV\u4e2d\u6587\u7cfb
p2186
g945
sg163
g985
sV\u516c\u7ba1\u5b66\u9662
p2187
g1025
sV\u5fae\u7eb3\u7535\u5b50\u7cfb
p2188
g1062
sV\u73af\u5883\u5b66\u9662
p2189
g1100
sV\u6c7d\u8f66\u7cfb
p2190
g1143
sg72
g1183
sV\u7269\u7406\u7cfb
p2191
g1224
sg1889
g1266
sg2059
g1836
sV\u6570\u5b66\u7cfb
p2192
g1348
sV\u7f8e\u672f\u5b66\u9662
p2193
g1391
sg84
g1432
sg2011
g1460
sV\u533b\u5b66\u9662
p2194
g1481
sg1895
g1556
sg90
g1520
sV\u5efa\u7b51\u5b66\u9662
p2195
g1643
sV\u6750\u6599\u5b66\u9662
p2196
g1699
sg2090
g1751
sV\u5916\u6587\u7cfb
p2197
g1793
sg1988
g1307
ssg44
(dp2198
g2178
g133
sg16
g202
sg1960
g265
sV\u5de5\u4e1a\u5de5\u7a0b\u7cfb
p2199
g271
sg104
g1738
sV\u5316\u5b66\u7cfb
p2200
g361
sg26
g404
sg1906
g450
sV\u7535\u673a\u7cfb
p2201
g494
sg32
g534
sV\u822a\u9662
p2202
g581
sV\u7ecf\u7ba1\u5b66\u9662
p2203
g621
sg1968
g663
sg42
g705
sg132
g748
sg157
g790
sg1970
g836
sV\u751f\u547d\u5b66\u9662
p2204
g883
sg2002
g959
sV\u6559\u7814\u9662
p2205
g972
sV\u516c\u7ba1\u5b66\u9662
p2206
g1043
sV\u5fae\u7eb3\u7535\u5b50\u7cfb
p2207
g1052
sg68
g1087
sV\u6c7d\u8f66\u7cfb
p2208
g1131
sV\u5316\u5de5\u7cfb
p2209
g1170
sg2078
g1212
sV\u673a\u68b0\u5b66\u9662
p2210
g1285
sg2033
g1293
sg1891
g1335
sg1892
g1378
sV\u9a6c\u514b\u601d\u4e3b\u4e49\u5b66\u9662
p2211
g1420
sg1894
g1468
sg90
g1507
sV\u5de5\u7269\u7cfb
p2212
g1543
sg1873
g1586
sg106
g1780
sg2057
g1686
sg2155
g1730
sg1898
g313
sV\u5efa\u7b51\u5b66\u9662
p2213
g1631
sg2109
g1854
ssg46
(dp2214
g2138
g158
sg132
g763
sg16
g218
sg1901
g254
sV\u5de5\u4e1a\u5de5\u7a0b\u7cfb
p2215
g286
sV\u65b0\u95fb\u5b66\u9662
p2216
g1753
sg24
g376
sg26
g419
sV\u70ed\u80fd\u7cfb
p2217
g465
sV\u7535\u673a\u7cfb
p2218
g508
sg32
g548
sV\u822a\u9662
p2219
g596
sg38
g635
sg1968
g678
sV\u8f6f\u4ef6\u5b66\u9662
p2220
g720
sg94
g1601
sg157
g805
sg1912
g852
sg1940
g899
sg56
g947
sV\u6559\u7814\u9662
p2221
g987
sg1883
g1027
sg1943
g1064
sg68
g1102
sV\u6c7d\u8f66\u7cfb
p2222
g1145
sV\u5316\u5de5\u7cfb
p2223
g1185
sV\u7269\u7406\u7cfb
p2224
g1226
sg2008
g1268
sg2086
g1838
sg2052
g1350
sg1866
g1393
sV\u9a6c\u514b\u601d\u4e3b\u4e49\u5b66\u9662
p2225
g1434
sV\u533b\u5b66\u9662
p2226
g1483
sg92
g1558
sg90
g1522
sg106
g1795
sg98
g1676
sg2057
g1701
sg2155
g1729
sg2181
g330
sV\u5efa\u7b51\u5b66\u9662
p2227
g1645
sg2017
g1309
ssg48
(dp2228
V\u73af\u5883\u5b66\u9662
p2229
g1103
sV\u5efa\u7b51\u5b66\u9662
p2230
g1646
sV\u6750\u6599\u5b66\u9662
p2231
g1702
sV\u4eba\u6587\u5b66\u9662
p2232
g853
sV\u6cd5\u5b66\u9662
p2233
g806
sV\u6c7d\u8f66\u7cfb
p2234
g1146
sV\u5316\u5de5\u7cfb
p2235
g1186
sV\u65b0\u96c5\u4e66\u9662
p2236
g833
sg1991
g287
sV\u793e\u79d1\u5b66\u9662
p2237
g331
sV\u751f\u547d\u5b66\u9662
p2238
g900
sV\u7535\u5b50\u7cfb
p2239
g420
sg1906
g466
sV\u5916\u6587\u7cfb
p2240
g1796
sV\u6570\u5b66\u7cfb
p2241
g1351
sV\u6838\u7814\u9662
p2242
g1310
ssg50
(dp2243
g1958
g160
sV\u7cbe\u4eea\u7cfb
p2244
g219
sV\u751f\u533b\u7cfb
p2245
g255
sV\u5de5\u4e1a\u5de5\u7a0b\u7cfb
p2246
g288
sg124
g332
sg138
g377
sg26
g421
sg2120
g467
sg2068
g509
sg32
g549
sV\u571f\u6728\u7cfb
p2247
g1602
sg1966
g597
sV\u7ecf\u7ba1\u5b66\u9662
p2248
g636
sg1968
g679
sV\u8f6f\u4ef6\u5b66\u9662
p2249
g721
sg132
g764
sV\u6cd5\u5b66\u9662
p2250
g807
sg159
g854
sg1940
g901
sg2186
g948
sV\u6559\u7814\u9662
p2251
g988
sV\u516c\u7ba1\u5b66\u9662
p2252
g1028
sV\u5fae\u7eb3\u7535\u5b50\u7cfb
p2253
g1065
sg68
g1104
sg2100
g1147
sV\u5316\u5de5\u7cfb
p2254
g1187
sg2172
g1227
sV\u673a\u68b0\u5b66\u9662
p2255
g1269
sV\u6838\u7814\u9662
p2256
g1311
sg1981
g1352
sg2010
g1394
sg184
g1435
sg88
g1484
sV\u5de5\u7269\u7cfb
p2257
g1559
sg90
g1523
sV\u5916\u6587\u7cfb
p2258
g1797
sg2015
g1703
sg102
g1731
sV\u65b0\u95fb\u5b66\u9662
p2259
g1754
sg2227
g1647
sg1980
g1839
ssg52
(dp2260
g12
g127
sg1958
g161
sg16
g220
sg1960
g256
sg2215
g289
sV\u65b0\u95fb\u5b66\u9662
p2261
g1755
sg138
g378
sg1871
g422
sg28
g468
sV\u7535\u673a\u7cfb
p2262
g510
sg32
g550
sg94
g1603
sg1907
g598
sV\u7ecf\u7ba1\u5b66\u9662
p2263
g637
sg1968
g680
sg1936
g722
sg1969
g765
sg1999
g808
sg2147
g855
sV\u751f\u547d\u5b66\u9662
p2264
g902
sg2002
g949
sg163
g989
sg2075
g1029
sg1975
g1066
sg1976
g1105
sV\u6c7d\u8f66\u7cfb
p2265
g1148
sg72
g1188
sg2007
g1228
sg2008
g1270
sV\u6838\u7814\u9662
p2266
g1312
sg1891
g1353
sg1892
g1395
sg84
g1436
sV\u836f\u5b66\u9662
p2267
g1464
sg2131
g1485
sg92
g1560
sg90
g1524
sg1952
g1648
sV\u6750\u6599\u5b66\u9662
p2268
g1704
sg2155
g1734
sV\u793e\u79d1\u5b66\u9662
p2269
g333
sg2058
g1798
sV\u5efa\u7ba1\u7cfb
p2270
g1840
ssg54
(dp2271
V\u7ecf\u7ba1\u5b66\u9662
p2272
g638
sV\u5fae\u7eb3\u7535\u5b50\u7cfb
p2273
g1067
sg40
g681
sg1892
g1396
sV\u533b\u5b66\u9662
p2274
g1486
sV\u6cd5\u5b66\u9662
p2275
g809
sg1978
g1229
sV\u4eba\u6587\u5b66\u9662
p2276
g856
sg2216
g1756
sg54
g930
sg32
g551
sV\u516c\u7ba1\u5b66\u9662
p2277
g1030
sV\u822a\u9662
p2278
g599
ssg56
(dp2279
g1959
g222
sg2215
g290
sg1869
g1757
sV\u7535\u5b50\u7cfb
p2280
g423
sV\u70ed\u80fd\u7cfb
p2281
g469
sV\u7535\u673a\u7cfb
p2282
g511
sg32
g552
sg2041
g600
sV\u7ecf\u7ba1\u5b66\u9662
p2283
g639
sV\u673a\u68b0\u7cfb
p2284
g682
sV\u8f6f\u4ef6\u5b66\u9662
p2285
g723
sV\u571f\u6728\u7cfb
p2286
g1604
sg2124
g857
sg2264
g903
sg2148
g950
sV\u6559\u7814\u9662
p2287
g990
sg1975
g1068
sV\u73af\u5883\u5b66\u9662
p2288
g1106
sV\u5916\u6587\u7cfb
p2289
g1799
sg72
g1189
sg2078
g1230
sV\u673a\u68b0\u5b66\u9662
p2290
g1271
sg2266
g1313
sV\u6570\u5b66\u7cfb
p2291
g1354
sV\u7f8e\u672f\u5b66\u9662
p2292
g1397
sV\u533b\u5b66\u9662
p2293
g1487
sV\u5de5\u7269\u7cfb
p2294
g1561
sV\u6c34\u5229\u7cfb
p2295
g766
sV\u793e\u79d1\u5b66\u9662
p2296
g334
sV\u5efa\u7b51\u5b66\u9662
p2297
g1649
sg1980
g1841
ssg58
(dp2298
V\u5de5\u4e1a\u5de5\u7a0b\u7cfb
p2299
g302
sg58
g969
sV\u5316\u5b66\u7cfb
p2300
g391
sV\u7535\u5b50\u7cfb
p2301
g436
sV\u571f\u6728\u7cfb
p2302
g1617
ssg60
(dp2303
V\u81ea\u52a8\u5316\u7cfb
p2304
g164
sV\u7cbe\u4eea\u7cfb
p2305
g223
sV\u751f\u533b\u7cfb
p2306
g257
sg122
g291
sg124
g335
sV\u5316\u5b66\u7cfb
p2307
g380
sV\u7535\u5b50\u7cfb
p2308
g425
sg2020
g470
sg30
g512
sg32
g553
sg1874
g601
sg2203
g640
sV\u673a\u68b0\u7cfb
p2309
g683
sg42
g724
sV\u6c34\u5229\u7cfb
p2310
g767
sg157
g810
sg2147
g858
sg2264
g904
sg54
g932
sg163
g991
sg1883
g1031
sV\u5fae\u7eb3\u7535\u5b50\u7cfb
p2311
g1069
sV\u73af\u5883\u5b66\u9662
p2312
g1107
sg2265
g1149
sV\u5316\u5de5\u7cfb
p2313
g1190
sV\u7269\u7406\u7cfb
p2314
g1231
sg2079
g1272
sV\u6838\u7814\u9662
p2315
g1314
sg1891
g1355
sg2053
g1398
sg2130
g1437
sV\u533b\u5b66\u9662
p2316
g1488
sg90
g1525
sV\u5de5\u7269\u7cfb
p2317
g1562
sg2247
g1606
sg191
g1650
sV\u6750\u6599\u5b66\u9662
p2318
g1705
sg2216
g1758
sg2135
g1800
sg1980
g1842
ssg62
(dp2319
V\u81ea\u52a8\u5316\u7cfb
p2320
g166
sV\u7cbe\u4eea\u7cfb
p2321
g224
sV\u5de5\u4e1a\u5de5\u7a0b\u7cfb
p2322
g292
sV\u793e\u79d1\u5b66\u9662
p2323
g336
sg138
g381
sV\u7535\u5b50\u7cfb
p2324
g426
sg28
g471
sV\u7535\u673a\u7cfb
p2325
g513
sg32
g554
sV\u822a\u9662
p2326
g602
sV\u7ecf\u7ba1\u5b66\u9662
p2327
g641
sV\u673a\u68b0\u7cfb
p2328
g684
sV\u8f6f\u4ef6\u5b66\u9662
p2329
g725
sV\u571f\u6728\u7cfb
p2330
g1607
sg2166
g811
sg1970
g859
sV\u751f\u547d\u5b66\u9662
p2331
g905
sg2130
g1438
sV\u6559\u7814\u9662
p2332
g992
sg1974
g1032
sg2207
g1070
sg1885
g1108
sg1977
g1150
sg72
g1191
sg1978
g1232
sV\u6838\u7814\u9662
p2333
g1315
sg2052
g1356
sg2292
g1399
sg58
g966
sg2152
g1489
sg90
g1526
sV\u5de5\u7269\u7cfb
p2334
g1563
sV\u6c34\u5229\u7cfb
p2335
g768
sg106
g1801
sg98
g1677
sg2133
g1706
sV\u65b0\u95fb\u5b66\u9662
p2336
g1759
sV\u5efa\u7b51\u5b66\u9662
p2337
g1651
ssg64
(dp2338
V\u81ea\u52a8\u5316\u7cfb
p2339
g162
ssg66
(dp2340
g1865
g168
sg2335
g769
sV\u7cbe\u4eea\u7cfb
p2341
g225
sg2215
g293
sV\u65b0\u95fb\u5b66\u9662
p2342
g1760
sg1962
g382
sV\u7535\u5b50\u7cfb
p2343
g427
sV\u70ed\u80fd\u7cfb
p2344
g472
sg1932
g514
sg32
g555
sg2144
g603
sg66
g1071
sV\u673a\u68b0\u7cfb
p2345
g685
sV\u8f6f\u4ef6\u5b66\u9662
p2346
g726
sV\u571f\u6728\u7cfb
p2347
g1608
sV\u6cd5\u5b66\u9662
p2348
g812
sg2276
g860
sV\u751f\u547d\u5b66\u9662
p2349
g906
sg2126
g993
sg2127
g1033
sV\u7ecf\u7ba1\u5b66\u9662
p2350
g642
sg1885
g1109
sV\u6c7d\u8f66\u7cfb
p2351
g1151
sV\u5316\u5de5\u7cfb
p2352
g1192
sV\u7269\u7406\u7cfb
p2353
g1233
sg1889
g1273
sV\u6838\u7814\u9662
p2354
g1316
sg2173
g1400
sV\u9a6c\u514b\u601d\u4e3b\u4e49\u5b66\u9662
p2355
g1439
sV\u533b\u5b66\u9662
p2356
g1490
sV\u5de5\u7269\u7cfb
p2357
g1564
sg90
g1527
sg2195
g1652
sg98
g1672
sV\u6750\u6599\u5b66\u9662
p2358
g1707
sg2269
g337
sV\u5916\u6587\u7cfb
p2359
g1802
sV\u5efa\u7ba1\u7cfb
p2360
g1843
ssg68
(dp2361
V\u81ea\u52a8\u5316\u7cfb
p2362
g170
sV\u6c34\u5229\u7cfb
p2363
g770
sg16
g226
sV\u5de5\u4e1a\u5de5\u7a0b\u7cfb
p2364
g294
sg1961
g1761
sV\u5316\u5b66\u7cfb
p2365
g383
sg2324
g428
sg28
g473
sg1994
g515
sg32
g556
sV\u822a\u9662
p2366
g604
sg2070
g643
sg1968
g686
sg2346
g727
sg2154
g1609
sg1938
g813
sg2024
g861
sV\u751f\u547d\u5b66\u9662
p2367
g907
sg2002
g951
sg1973
g994
sg2003
g1034
sg1975
g1072
sV\u73af\u5883\u5b66\u9662
p2368
g1110
sg70
g1152
sg1916
g1193
sV\u7269\u7406\u7cfb
p2369
g1234
sV\u673a\u68b0\u5b66\u9662
p2370
g1274
sV\u6838\u7814\u9662
p2371
g1317
sV\u6570\u5b66\u7cfb
p2372
g1357
sg2053
g1401
sV\u9a6c\u514b\u601d\u4e3b\u4e49\u5b66\u9662
p2373
g1440
sg2103
g1491
sg2357
g1565
sg90
g1528
sg191
g1653
sg2196
g1708
sg22
g338
sg106
g1803
sV\u5efa\u7ba1\u7cfb
p2374
g1844
ssg70
(dp2375
g14
g172
sg16
g227
sV\u5de5\u4e1a\u5de5\u7a0b\u7cfb
p2376
g295
sV\u793e\u79d1\u5b66\u9662
p2377
g339
sg1930
g384
sV\u7535\u5b50\u7cfb
p2378
g429
sg142
g474
sV\u7535\u673a\u7cfb
p2379
g516
sg32
g557
sV\u571f\u6728\u7cfb
p2380
g1610
sg2069
g605
sV\u7ecf\u7ba1\u5b66\u9662
p2381
g644
sV\u673a\u68b0\u7cfb
p2382
g687
sg1876
g728
sg132
g771
sg2166
g814
sg1912
g862
sV\u751f\u547d\u5b66\u9662
p2383
g908
sV\u4e2d\u6587\u7cfb
p2384
g952
sV\u6559\u7814\u9662
p2385
g995
sV\u516c\u7ba1\u5b66\u9662
p2386
g1035
sV\u5fae\u7eb3\u7535\u5b50\u7cfb
p2387
g1073
sV\u73af\u5883\u5b66\u9662
p2388
g1111
sV\u6c7d\u8f66\u7cfb
p2389
g1153
sg72
g1194
sg2008
g1275
sg1980
g1845
sg1891
g1358
sV\u7f8e\u672f\u5b66\u9662
p2390
g1402
sg2130
g1441
sV\u533b\u5b66\u9662
p2391
g1492
sg188
g1566
sg90
g1529
sg2014
g1804
sV\u6750\u6599\u5b66\u9662
p2392
g1709
sg1954
g1762
sV\u5efa\u7b51\u5b66\u9662
p2393
g1654
sV\u6838\u7814\u9662
p2394
g1318
ssg72
(dp2395
g2178
g174
sg16
g228
sV\u751f\u533b\u7cfb
p2396
g258
sV\u5de5\u4e1a\u5de5\u7a0b\u7cfb
p2397
g296
sg2377
g340
sg138
g385
sV\u7535\u5b50\u7cfb
p2398
g430
sg142
g475
sV\u7535\u673a\u7cfb
p2399
g517
sg32
g558
sg2144
g606
sg1967
g645
sV\u673a\u68b0\u7cfb
p2400
g688
sg2329
g729
sV\u6c34\u5229\u7cfb
p2401
g772
sg2250
g815
sg2167
g863
sg52
g909
sg54
g926
sg2002
g953
sV\u6559\u7814\u9662
p2402
g996
sV\u516c\u7ba1\u5b66\u9662
p2403
g1036
sg1975
g1074
sV\u73af\u5883\u5b66\u9662
p2404
g1112
sV\u6c7d\u8f66\u7cfb
p2405
g1154
sg1916
g1195
sg1978
g1236
sg2008
g1276
sV\u6838\u7814\u9662
p2406
g1319
sg1981
g1359
sV\u7f8e\u672f\u5b66\u9662
p2407
g1403
sg84
g1442
sg88
g1493
sg90
g1530
sg1950
g1567
sg94
g1611
sg2175
g1655
sV\u6750\u6599\u5b66\u9662
p2408
g1710
sg1954
g1763
sg2014
g1805
sg112
g1846
ssg74
(dp2409
g2088
g176
sg16
g229
sV\u751f\u533b\u7cfb
p2410
g259
sV\u5de5\u4e1a\u5de5\u7a0b\u7cfb
p2411
g297
sg1869
g1764
sV\u5316\u5b66\u7cfb
p2412
g386
sV\u7535\u5b50\u7cfb
p2413
g431
sV\u70ed\u80fd\u7cfb
p2414
g476
sV\u7535\u673a\u7cfb
p2415
g518
sg32
g559
sg1966
g607
sV\u7ecf\u7ba1\u5b66\u9662
p2416
g646
sV\u673a\u68b0\u7cfb
p2417
g689
sg2145
g730
sg132
g773
sV\u6cd5\u5b66\u9662
p2418
g816
sV\u4eba\u6587\u5b66\u9662
p2419
g864
sg2001
g910
sV\u9ad8\u7814\u9662
p2420
g927
sV\u4e2d\u6587\u7cfb
p2421
g954
sg2402
g997
sV\u516c\u7ba1\u5b66\u9662
p2422
g1037
sV\u73af\u5883\u5b66\u9662
p2423
g1113
sV\u6c7d\u8f66\u7cfb
p2424
g1155
sg2077
g1196
sg2007
g1237
sg2032
g1277
sg112
g1847
sg2291
g1360
sg2193
g1404
sg84
g1443
sg2194
g1494
sg90
g1531
sg2317
g1568
sV\u571f\u6728\u7cfb
p2425
g1612
sg1987
g1656
sg2057
g1711
sV\u793e\u79d1\u5b66\u9662
p2426
g341
sV\u5916\u6587\u7cfb
p2427
g1806
sg2017
g1320
ssg76
(dp2428
V\u81ea\u52a8\u5316\u7cfb
p2429
g178
sV\u7cbe\u4eea\u7cfb
p2430
g230
sg2063
g260
sg1991
g298
sV\u65b0\u95fb\u5b66\u9662
p2431
g1765
sV\u5316\u5b66\u7cfb
p2432
g387
sV\u7535\u5b50\u7cfb
p2433
g432
sV\u70ed\u80fd\u7cfb
p2434
g477
sV\u7535\u673a\u7cfb
p2435
g519
sg32
g560
sV\u822a\u9662
p2436
g608
sV\u7ecf\u7ba1\u5b66\u9662
p2437
g647
sV\u673a\u68b0\u7cfb
p2438
g690
sV\u8f6f\u4ef6\u5b66\u9662
p2439
g731
sV\u571f\u6728\u7cfb
p2440
g1613
sV\u6cd5\u5b66\u9662
p2441
g817
sV\u4eba\u6587\u5b66\u9662
p2442
g865
sg2349
g911
sg2287
g998
sV\u73af\u5883\u5b66\u9662
p2443
g1114
sV\u6c7d\u8f66\u7cfb
p2444
g1156
sV\u5316\u5de5\u7cfb
p2445
g1197
sV\u7269\u7406\u7cfb
p2446
g1238
sg2008
g1278
sV\u5efa\u7ba1\u7cfb
p2447
g1848
sg1919
g1361
sV\u7f8e\u672f\u5b66\u9662
p2448
g1405
sg84
g1444
sV\u5de5\u7269\u7cfb
p2449
g1569
sV\u6c34\u5229\u7cfb
p2450
g774
sV\u5efa\u7b51\u5b66\u9662
p2451
g1657
sg1923
g1712
sg1924
g342
sV\u5916\u6587\u7cfb
p2452
g1807
sV\u6838\u7814\u9662
p2453
g1321
ssg78
(dp2454
g2138
g180
sV\u7cbe\u4eea\u7cfb
p2455
g231
sg2246
g299
sg1954
g1766
sV\u5316\u5b66\u7cfb
p2456
g388
sV\u7535\u5b50\u7cfb
p2457
g433
sV\u70ed\u80fd\u7cfb
p2458
g478
sV\u7535\u673a\u7cfb
p2459
g520
sg32
g561
sg2144
g609
sg2070
g648
sV\u673a\u68b0\u7cfb
p2460
g691
sV\u8f6f\u4ef6\u5b66\u9662
p2461
g732
sV\u571f\u6728\u7cfb
p2462
g1614
sV\u6cd5\u5b66\u9662
p2463
g818
sg1912
g866
sg2097
g912
sg2002
g955
sV\u6559\u7814\u9662
p2464
g999
sg1883
g1038
sg2273
g1075
sg2404
g1115
sV\u6c7d\u8f66\u7cfb
p2465
g1157
sg1945
g1198
sV\u7269\u7406\u7cfb
p2466
g1239
sg1889
g1279
sg179
g1322
sg1891
g1362
sg128
g1406
sV\u9a6c\u514b\u601d\u4e3b\u4e49\u5b66\u9662
p2467
g1445
sV\u533b\u5b66\u9662
p2468
g1495
sg90
g1532
sg2357
g1570
sg1969
g775
sV\u5efa\u7b51\u5b66\u9662
p2469
g1658
sg2408
g1713
sV\u793e\u79d1\u5b66\u9662
p2470
g343
sV\u5916\u6587\u7cfb
p2471
g1808
sV\u5efa\u7ba1\u7cfb
p2472
g1849
ssg80
(dp2473
V\u81ea\u52a8\u5316\u7cfb
p2474
g182
sg16
g232
sg2245
g261
sg2246
g300
sV\u793e\u79d1\u5b66\u9662
p2475
g344
sV\u5316\u5b66\u7cfb
p2476
g389
sV\u7535\u5b50\u7cfb
p2477
g434
sV\u70ed\u80fd\u7cfb
p2478
g479
sV\u7535\u673a\u7cfb
p2479
g521
sg32
g562
sV\u822a\u9662
p2480
g610
sV\u7ecf\u7ba1\u5b66\u9662
p2481
g649
sg2284
g692
sg2249
g733
sg2154
g1615
sg2418
g819
sg2185
g867
sV\u751f\u547d\u5b66\u9662
p2482
g913
sg1973
g1000
sg2075
g1039
sV\u73af\u5883\u5b66\u9662
p2483
g1116
sV\u6c7d\u8f66\u7cfb
p2484
g1158
sg1916
g1199
sg2031
g1240
sg1889
g1280
sg2033
g1323
sg2052
g1363
sV\u7f8e\u672f\u5b66\u9662
p2485
g1407
sg2130
g1446
sg1894
g1496
sg90
g1533
sg2357
g1571
sV\u6c34\u5229\u7cfb
p2486
g776
sg191
g1659
sg1985
g1714
sg104
g1767
sg1925
g1809
sg2447
g1850
ssg82
(dp2487
g12
g129
sg2474
g183
sg16
g233
sg2245
g262
sg2215
g301
sg124
g345
sg24
g390
sg26
g435
sg1964
g480
sg2093
g522
sg32
g563
sg2219
g611
sg2070
g650
sg1968
g693
sV\u8f6f\u4ef6\u5b66\u9662
p2488
g734
sV\u6c34\u5229\u7cfb
p2489
g777
sg2348
g820
sg159
g868
sg2264
g914
sV\u4e2d\u6587\u7cfb
p2490
g956
sg1973
g1001
sg1883
g1040
sg1943
g1076
sg2404
g1117
sg2190
g1159
sg72
g1200
sg2172
g1241
sV\u673a\u68b0\u5b66\u9662
p2491
g1281
sg2266
g1324
sg2052
g1364
sg128
g1408
sg2225
g1447
sg2194
g1497
sg90
g1534
sg92
g1572
sg2247
g1616
sg1925
g1810
sg98
g1673
sg2057
g1715
sg2090
g1768
sg1987
g1660
sg2109
g1851
ssg84
(dp2492
V\u81ea\u52a8\u5316\u7cfb
p2493
g185
sV\u7cbe\u4eea\u7cfb
p2494
g234
sV\u793e\u79d1\u5b66\u9662
p2495
g346
sg138
g379
sV\u7535\u5b50\u7cfb
p2496
g424
sV\u70ed\u80fd\u7cfb
p2497
g481
sg32
g564
sV\u8f6f\u4ef6\u5b66\u9662
p2498
g735
sV\u6c34\u5229\u7cfb
p2499
g778
sg2275
g821
sg2024
g869
sV\u751f\u547d\u5b66\u9662
p2500
g915
sV\u6559\u7814\u9662
p2501
g1002
sV\u73af\u5883\u5b66\u9662
p2502
g1118
sV\u5316\u5de5\u7cfb
p2503
g1201
sg1978
g1242
sg1947
g1365
sg184
g1448
sV\u5de5\u7269\u7cfb
p2504
g1573
sV\u571f\u6728\u7cfb
p2505
g1605
sV\u6750\u6599\u5b66\u9662
p2506
g1716
sV\u5efa\u7b51\u5b66\u9662
p2507
g1661
ssg86
(dp2508
g2011
g1459
sV\u7ecf\u7ba1\u5b66\u9662
p2509
g651
sV\u73af\u5883\u5b66\u9662
p2510
g1119
sV\u533b\u5b66\u9662
p2511
g1498
sV\u571f\u6728\u7cfb
p2512
g1618
sV\u6cd5\u5b66\u9662
p2513
g822
sV\u6c34\u5229\u7cfb
p2514
g779
sV\u7269\u7406\u7cfb
p2515
g1243
sV\u4eba\u6587\u5b66\u9662
p2516
g870
sg2008
g1282
sV\u793e\u79d1\u5b66\u9662
p2517
g348
sV\u5316\u5b66\u7cfb
p2518
g392
sg2478
g482
sV\u7535\u673a\u7cfb
p2519
g523
sV\u751f\u547d\u5b66\u9662
p2520
g916
sV\u6570\u5b66\u7cfb
p2521
g1366
sV\u5de5\u7269\u7cfb
p2522
g1574
sg84
g1449
ssg88
(dp2523
V\u81ea\u52a8\u5316\u7cfb
p2524
g187
sg2139
g235
sg2306
g263
sg2215
g303
sV\u793e\u79d1\u5b66\u9662
p2525
g349
sg138
g393
sV\u7535\u5b50\u7cfb
p2526
g437
sg2067
g483
sV\u7535\u673a\u7cfb
p2527
g524
sg32
g565
sV\u571f\u6728\u7cfb
p2528
g1619
sg2366
g612
sg2070
g652
sg2417
g694
sV\u8f6f\u4ef6\u5b66\u9662
p2529
g736
sg1969
g780
sg1999
g823
sg2185
g871
sV\u751f\u547d\u5b66\u9662
p2530
g917
sg1972
g957
sg2287
g1003
sV\u516c\u7ba1\u5b66\u9662
p2531
g1041
sg2207
g1077
sg2029
g1120
sg2190
g1160
sg2254
g1202
sV\u7269\u7406\u7cfb
p2532
g1244
sg2079
g1283
sg2394
g1325
sg80
g1367
sg2292
g1409
sg84
g1450
sV\u836f\u5b66\u9662
p2533
g1461
sV\u533b\u5b66\u9662
p2534
g1499
sg1895
g1575
sg90
g1535
sg1987
g1662
sg2035
g1717
sV\u65b0\u95fb\u5b66\u9662
p2535
g1769
sg106
g1811
sg1980
g1852
ssg90
(dp2536
V\u81ea\u52a8\u5316\u7cfb
p2537
g190
sg16
g237
sV\u5de5\u4e1a\u5de5\u7a0b\u7cfb
p2538
g305
sg104
g1771
sV\u5316\u5b66\u7cfb
p2539
g395
sV\u7535\u5b50\u7cfb
p2540
g439
sV\u70ed\u80fd\u7cfb
p2541
g486
sV\u7535\u673a\u7cfb
p2542
g526
sg32
g567
sg2480
g614
sg2121
g654
sV\u673a\u68b0\u7cfb
p2543
g696
sg2072
g738
sg2462
g1621
sV\u6cd5\u5b66\u9662
p2544
g825
sg159
g874
sV\u751f\u547d\u5b66\u9662
p2545
g919
sV\u6559\u7814\u9662
p2546
g1005
sg2387
g1079
sg1976
g1122
sV\u6c7d\u8f66\u7cfb
p2547
g1162
sg1945
g1204
sg2050
g1246
sg2242
g1327
sV\u6570\u5b66\u7cfb
p2548
g1369
sg1982
g1411
sg84
g1452
sV\u533b\u5b66\u9662
p2549
g1501
sg90
g1537
sg2317
g1577
sV\u6c34\u5229\u7cfb
p2550
g782
sg2037
g1813
sg2057
g1719
sV\u793e\u79d1\u5b66\u9662
p2551
g351
sg2083
g1664
ssg92
(dp2552
g1958
g189
sg16
g236
sg1960
g264
sV\u5de5\u4e1a\u5de5\u7a0b\u7cfb
p2553
g304
sg1954
g1770
sg138
g394
sg1871
g438
sV\u70ed\u80fd\u7cfb
p2554
g485
sg2093
g525
sg32
g566
sg2326
g613
sg2416
g653
sV\u673a\u68b0\u7cfb
p2555
g695
sg42
g737
sg1965
g1620
sg2146
g824
sg2147
g873
sV\u751f\u547d\u5b66\u9662
p2556
g918
sV\u4e2d\u6587\u7cfb
p2557
g958
sg1973
g1004
sg2252
g1042
sV\u5fae\u7eb3\u7535\u5b50\u7cfb
p2558
g1078
sg2368
g1121
sg2171
g1161
sg72
g1203
sV\u7269\u7406\u7cfb
p2559
g1245
sg2370
g1284
sg2033
g1326
sg1891
g1368
sg2151
g1410
sg1893
g1451
sg1894
g1500
sg90
g1536
sg188
g1576
sg2550
g781
sg1987
g1663
sV\u6750\u6599\u5b66\u9662
p2560
g1718
sg2134
g350
sg1955
g1812
sg2447
g1853
ssg94
(dp2561
g1865
g156
sg16
g217
sg2245
g253
sg2246
g285
sg2181
g329
sg1962
g375
sg26
g418
sg2142
g464
sg2068
g507
sg32
g547
sg155
g1600
sg34
g578
sg2219
g595
sg2416
g634
sg2555
g677
sg42
g719
sg1877
g762
sg157
g804
sg2147
g851
sg1940
g898
sg1941
g946
sg1973
g986
sg2127
g1026
sg1884
g1063
sg2004
g1101
sg1977
g1144
sg72
g1184
sg2369
g1225
sV\u673a\u68b0\u5b66\u9662
p2562
g1267
sg2033
g1308
sg1891
g1349
sg1866
g1392
sg84
g1433
sg2316
g1482
sg2104
g1557
sg90
g1521
sV\u5efa\u7b51\u5b66\u9662
p2563
g1644
sg98
g1675
sg2057
g1700
sg2155
g1728
sg1869
g1752
sg2014
g1794
sV\u5efa\u7ba1\u7cfb
p2564
g1837
ssg96
(dp2565
g2138
g192
sV\u6c34\u5229\u7cfb
p2566
g783
sg16
g238
sg2246
g306
sg104
g1772
sg2091
g396
sg26
g440
sV\u70ed\u80fd\u7cfb
p2567
g487
sg2325
g527
sg32
g568
sg2144
g615
sg1875
g655
sg40
g697
sV\u8f6f\u4ef6\u5b66\u9662
p2568
g739
sg2247
g1622
sg1878
g826
sg2167
g875
sV\u751f\u547d\u5b66\u9662
p2569
g920
sg54
g931
sg2490
g960
sg1973
g1006
sg1883
g1044
sg1975
g1082
sg68
g1123
sg1977
g1163
sV\u5316\u5de5\u7cfb
p2570
g1205
sg2369
g1235
sg2562
g1286
sg2086
g1855
sg2052
g1370
sg1982
g1412
sV\u9a6c\u514b\u601d\u4e3b\u4e49\u5b66\u9662
p2571
g1453
sg2194
g1504
sg2153
g1578
sg90
g1540
sV\u5916\u6587\u7cfb
p2572
g1814
sg98
g1681
sg2035
g1720
sg1929
g352
sg1987
g1665
sV\u6838\u7814\u9662
p2573
g1328
ssg98
(dp2574
g98
g1678
ssg100
(dp2575
g2117
g194
sg16
g239
sg2245
g266
sg2411
g307
sg2108
g353
sg138
g397
sV\u7535\u5b50\u7cfb
p2576
g441
sg1906
g488
sg2068
g528
sg32
g569
sg2326
g616
sg38
g656
sg2460
g698
sg2220
g740
sg1877
g784
sg1999
g827
sg1970
g876
sg126
g921
sg54
g928
sg56
g961
sg2287
g1007
sg2169
g1045
sg2558
g1080
sg2004
g1124
sg2208
g1164
sV\u5316\u5de5\u7cfb
p2577
g1206
sg2050
g1247
sg2290
g1287
sg1980
g1856
sg1981
g1371
sg1866
g1413
sg84
g1454
sg1894
g1502
sg90
g1538
sg1895
g1579
sg2330
g1623
sg1925
g1815
sg2057
g1721
sg2090
g1773
sV\u5efa\u7b51\u5b66\u9662
p2578
g1666
sg108
g1821
sV\u6838\u7814\u9662
p2579
g1329
ssg102
(dp2580
g2227
g1667
sg2090
g1774
sg2365
g398
sg1963
g442
sg32
g570
sV\u7ecf\u7ba1\u5b66\u9662
p2581
g657
sg2309
g699
sg1998
g1624
sV\u6cd5\u5b66\u9662
p2582
g828
sV\u4eba\u6587\u5b66\u9662
p2583
g877
sg2383
g922
sV\u6559\u7814\u9662
p2584
g1008
sg2127
g1046
sg1884
g1081
sg2510
g1125
sg2190
g1165
sg2078
g1248
sg2136
g1857
sg1947
g1372
sV\u7f8e\u672f\u5b66\u9662
p2585
g1414
sg184
g1455
sg2153
g1580
sg1985
g1722
sg2155
g1732
sV\u793e\u79d1\u5b66\u9662
p2586
g355
sV\u5916\u6587\u7cfb
p2587
g1816
sV\u6838\u7814\u9662
p2588
g1330
ssg104
(dp2589
g1990
g137
sg16
g207
sg18
g246
sg2215
g275
sg136
g1742
sg138
g365
sg26
g408
sg1993
g454
sg2093
g497
sg32
g537
sg1907
g585
sV\u7ecf\u7ba1\u5b66\u9662
p2590
g624
sg1968
g667
sg2249
g709
sg1937
g751
sg157
g794
sg2185
g840
sg2482
g887
sg1972
g937
sg2251
g976
sg1974
g1016
sg2170
g1091
sV\u6c7d\u8f66\u7cfb
p2591
g1134
sg1916
g1174
sV\u7269\u7406\u7cfb
p2592
g1215
sg2008
g1257
sg2033
g1297
sg2291
g1339
sV\u7f8e\u672f\u5b66\u9662
p2593
g1382
sg184
g1423
sg2533
g1463
sV\u533b\u5b66\u9662
p2594
g1472
sg90
g1511
sg2357
g1547
sg2056
g1590
sg106
g1784
sg1953
g1690
sg102
g1733
sg2141
g317
sV\u5efa\u7b51\u5b66\u9662
p2595
g1634
sg112
g1827
ssg106
(dp2596
g1990
g197
sg1959
g241
sg2245
g268
sg2215
g309
sg104
g1776
sg2200
g400
sg1871
g444
sV\u70ed\u80fd\u7cfb
p2597
g490
sV\u7535\u673a\u7cfb
p2598
g530
sg32
g572
sg1966
g618
sV\u7ecf\u7ba1\u5b66\u9662
p2599
g659
sV\u673a\u68b0\u7cfb
p2600
g701
sg2346
g742
sV\u571f\u6728\u7cfb
p2601
g1626
sg157
g830
sV\u4eba\u6587\u5b66\u9662
p2602
g879
sV\u751f\u547d\u5b66\u9662
p2603
g924
sg2186
g963
sg60
g1010
sg1974
g1048
sg2207
g1083
sg2029
g1127
sg2484
g1167
sV\u5316\u5de5\u7cfb
p2604
g1208
sV\u7269\u7406\u7cfb
p2605
g1250
sg2008
g1289
sV\u5efa\u7ba1\u7cfb
p2606
g1859
sV\u6570\u5b66\u7cfb
p2607
g1374
sV\u7f8e\u672f\u5b66\u9662
p2608
g1416
sg84
g1457
sV\u5de5\u7269\u7cfb
p2609
g1582
sV\u6c34\u5229\u7cfb
p2610
g786
sV\u5efa\u7b51\u5b66\u9662
p2611
g1669
sg2268
g1724
sg2108
g357
sg106
g1818
sV\u6838\u7814\u9662
p2612
g1332
ssg108
(dp2613
V\u5fae\u7eb3\u7535\u5b50\u7cfb
p2614
g1084
sV\u571f\u6728\u7cfb
p2615
g1627
sV\u8f6f\u4ef6\u5b66\u9662
p2616
g743
sg445
g1822
sV\u7535\u5b50\u7cfb
p2617
g446
ssg110
(dp2618
g2419
g872
sV\u70ed\u80fd\u7cfb
p2619
g484
ssg112
(dp2620
V\u81ea\u52a8\u5316\u7cfb
p2621
g199
sg2341
g242
sV\u5de5\u4e1a\u5de5\u7a0b\u7cfb
p2622
g310
sV\u65b0\u95fb\u5b66\u9662
p2623
g1777
sV\u5316\u5b66\u7cfb
p2624
g401
sg1963
g447
sV\u70ed\u80fd\u7cfb
p2625
g491
sV\u7535\u673a\u7cfb
p2626
g531
sg32
g573
sg2481
g660
sg40
g702
sg2461
g744
sg2096
g787
sV\u6cd5\u5b66\u9662
p2627
g831
sg2583
g880
sV\u6559\u7814\u9662
p2628
g1011
sg2388
g1128
sV\u5316\u5de5\u7cfb
p2629
g1209
sV\u7269\u7406\u7cfb
p2630
g1251
sg1889
g1290
sg2564
g1860
sg2081
g1417
sg2609
g1583
sV\u571f\u6728\u7cfb
p2631
g1628
sg2506
g1725
sV\u793e\u79d1\u5b66\u9662
p2632
g358
sg1955
g1819
sssS'_adj'
p2633
g1862
sS'adjlist_outer_dict_factory'
p2634
g7
sb.