(lp0
(V\u4eba\u6587\u5b66\u9662
p1
F0.1446588329634509
tp2
a(V\u7ecf\u7ba1\u5b66\u9662
p3
F0.07866349985704266
tp4
a(V\u793e\u79d1\u5b66\u9662
p5
F0.07458512276863236
tp6
a(V\u6559\u7814\u9662
p7
F0.07053044698854553
tp8
a(V\u6c34\u5229\u7cfb
p9
F0.06213388832972287
tp10
a(V\u6cd5\u5b66\u9662
p11
F0.04815670496458211
tp12
a(V\u8ba1\u7b97\u673a\u7cfb
p13
F0.04233327651435071
tp14
a(V\u5316\u5b66\u7cfb
p15
F0.024890847507350242
tp16
a(V\u5316\u5de5\u7cfb
p17
F0.024374048119696734
tp18
a(V\u516c\u7ba1\u5b66\u9662
p19
F0.022284773396814485
tp20
a(V\u5de5\u7269\u7cfb
p21
F0.02119046103638006
tp22
a(V\u6570\u5b66\u7cfb
p23
F0.020139922611726865
tp24
a(V\u9a6c\u514b\u601d\u4e3b\u4e49\u5b66\u9662
p25
F0.018881281617700436
tp26
a(V\u6838\u7814\u9662
p27
F0.017518063630699673
tp28
a(V\u65b0\u95fb\u5b66\u9662
p29
F0.016513087628570143
tp30
a(V\u7cbe\u4eea\u7cfb
p31
F0.01591359834919649
tp32
a(V\u7535\u5b50\u7cfb
p33
F0.013132373383345832
tp34
a(V\u822a\u9662
p35
F0.012753028215778199
tp36
a(V\u7f8e\u672f\u5b66\u9662
p37
F0.01230611906391896
tp38
a(V\u7269\u7406\u7cfb
p39
F0.012008280852377366
tp40
a(V\u571f\u6728\u7cfb
p41
F0.011827087756353818
tp42
a(V\u6e05\u534e-\u4f2f\u514b\u5229\u6df1\u5733\u5b66\u9662
p43
F0.011540307248545417
tp44
a(V\u81ea\u52a8\u5316\u7cfb
p45
F0.011341701819777037
tp46
a(V\u70ed\u80fd\u7cfb
p47
F0.010885715871678713
tp48
a(V\u73af\u5883\u5b66\u9662
p49
F0.010805118669563974
tp50
a(V\u6c7d\u8f66\u7cfb
p51
F0.009820799492371817
tp52
a(V\u7535\u673a\u7cfb
p53
F0.008873217553979825
tp54
a(V\u6750\u6599\u5b66\u9662
p55
F0.008503500715419915
tp56
a(V\u5de5\u4e1a\u5de5\u7a0b\u7cfb
p57
F0.008502996166562173
tp58
a(V\u4ea4\u53c9\u4fe1\u606f\u7814\u7a76\u9662
p59
F0.008433916612328105
tp60
a(V\u5730\u5b66\u7cfb
p61
F0.008295259618475787
tp62
a(V\u5168\u7403\u521b\u65b0\u5b66\u9662
p63
F0.008206428975111172
tp64
a(V\u5fae\u7eb3\u7535\u5b50\u7cfb
p65
F0.008151787709807286
tp66
a(S'\xe5\xbe\xae\xe7\xba\xb3\xe7\x94\xb5\xe5\xad\x90\xe7\xb3\xbb'
p67
F0.008122966932676164
tp68
a(S'\xe8\xae\xa1\xe7\xae\x97\xe6\x9c\xba\xe7\xb3\xbb'
p69
F0.008122966932676164
tp70
a(V\u8f6f\u4ef6\u5b66\u9662
p71
F0.008122966932676164
tp72
a(V\u65b0\u96c5\u4e66\u9662
p73
F0.008122966932676164
tp74
a(V\u751f\u547d\u5b66\u9662
p75
F0.008122966932676164
tp76
a(V\u9ad8\u7814\u9662
p77
F0.008122966932676164
tp78
a(V\u82cf\u4e16\u6c11\u4e66\u9662
p79
F0.008122966932676164
tp80
a(S'\xe7\xbb\x8f\xe7\xae\xa1\xe5\xad\xa6\xe9\x99\xa2'
p81
F0.008122966932676164
tp82
a(S'\xe4\xba\xba\xe6\x96\x87\xe5\xad\xa6\xe9\x99\xa2'
p83
F0.008122966932676164
tp84
a(V\u836f\u5b66\u9662
p85
F0.008122966932676164
tp86
a(S'\xe4\xba\xa4\xe5\x8f\x89\xe4\xbf\xa1\xe6\x81\xaf\xe7\xa0\x94\xe7\xa9\xb6\xe9\x99\xa2'
p87
F0.008122966932676164
tp88
a(V\u5efa\u7b51\u5b66\u9662
p89
F0.008122966932676164
tp90
a(S'\xe5\x8c\xbb\xe5\xad\xa6\xe9\x99\xa2'
p91
F0.008122966932676164
tp92
a(V\u5916\u6587\u7cfb
p93
F0.008122966932676164
tp94
a(S'\xe6\x9c\xba\xe6\xa2\xb0\xe5\xad\xa6\xe9\x99\xa2'
p95
F0.008122966932676164
tp96
a.