ccopy_reg
_reconstructor
p0
(cnetworkx.classes.digraph
DiGraph
p1
c__builtin__
object
p2
Ntp3
Rp4
(dp5
S'adjlist_inner_dict_factory'
p6
c__builtin__
dict
p7
sS'node_dict_factory'
p8
g7
sS'edge_attr_dict_factory'
p9
g7
sS'_node'
p10
(dp11
V\u5168\u7403\u521b\u65b0\u5b66\u9662
p12
(dp13
sV\u81ea\u52a8\u5316\u7cfb
p14
(dp15
sV\u7cbe\u4eea\u7cfb
p16
(dp17
sV\u751f\u533b\u7cfb
p18
(dp19
sV\u8ba1\u7b97\u673a\u7cfb
p20
(dp21
sV\u5de5\u4e1a\u5de5\u7a0b\u7cfb
p22
(dp23
sV\u793e\u79d1\u5b66\u9662
p24
(dp25
sV\u5316\u5b66\u7cfb
p26
(dp27
sV\u7535\u5b50\u7cfb
p28
(dp29
sV\u70ed\u80fd\u7cfb
p30
(dp31
sV\u7535\u673a\u7cfb
p32
(dp33
sV\u5730\u5b66\u7cfb
p34
(dp35
sS'\xe8\xae\xa1\xe7\xae\x97\xe6\x9c\xba\xe7\xb3\xbb'
p36
(dp37
sV\u822a\u9662
p38
(dp39
sV\u5fae\u7eb3\u7535\u5b50\u7cfb
p40
(dp41
sV\u673a\u68b0\u7cfb
p42
(dp43
sV\u8f6f\u4ef6\u5b66\u9662
p44
(dp45
sV\u6c34\u5229\u7cfb
p46
(dp47
sV\u6cd5\u5b66\u9662
p48
(dp49
sV\u65b0\u96c5\u4e66\u9662
p50
(dp51
sV\u4eba\u6587\u5b66\u9662
p52
(dp53
sV\u751f\u547d\u5b66\u9662
p54
(dp55
sV\u9ad8\u7814\u9662
p56
(dp57
sV\u4e2d\u6587\u7cfb
p58
(dp59
sS'\xe4\xba\xa4\xe5\x8f\x89\xe4\xbf\xa1\xe6\x81\xaf\xe7\xa0\x94\xe7\xa9\xb6\xe9\x99\xa2'
p60
(dp61
sV\u6e05\u534e-\u4f2f\u514b\u5229\u6df1\u5733\u5b66\u9662
p62
(dp63
sV\u6559\u7814\u9662
p64
(dp65
sV\u516c\u7ba1\u5b66\u9662
p66
(dp67
sV\u82cf\u4e16\u6c11\u4e66\u9662
p68
(dp69
sV\u7ee7\u6559\u5b66\u9662
p70
(dp71
sV\u7ecf\u7ba1\u5b66\u9662
p72
(dp73
sV\u73af\u5883\u5b66\u9662
p74
(dp75
sV\u6c7d\u8f66\u7cfb
p76
(dp77
sV\u5916\u6587\u7cfb
p78
(dp79
sV\u5316\u5de5\u7cfb
p80
(dp81
sV\u7269\u7406\u7cfb
p82
(dp83
sV\u7f51\u7edc\u7814\u7a76\u9662
p84
(dp85
sV\u673a\u68b0\u5b66\u9662
p86
(dp87
sV\u6838\u7814\u9662
p88
(dp89
sV\u6570\u5b66\u7cfb
p90
(dp91
sV\u7f8e\u672f\u5b66\u9662
p92
(dp93
sV\u9a6c\u514b\u601d\u4e3b\u4e49\u5b66\u9662
p94
(dp95
sV\u836f\u5b66\u9662
p96
(dp97
sV\u4ea4\u53c9\u4fe1\u606f\u7814\u7a76\u9662
p98
(dp99
sV\u533b\u5b66\u9662
p100
(dp101
sV\u80fd\u52a8\u7cfb
p102
(dp103
sV\u5de5\u7269\u7cfb
p104
(dp105
sV\u571f\u6728\u7cfb
p106
(dp107
sV\u8bbe\u8ba1\u9662
p108
(dp109
sV\u6750\u6599\u5b66\u9662
p110
(dp111
sV\u91d1\u878d\u5b66\u9662
p112
(dp113
sV\u65b0\u95fb\u5b66\u9662
p114
(dp115
sV\u5efa\u7b51\u5b66\u9662
p116
(dp117
sV\u5fae\u7535\u5b50\u6240
p118
(dp119
sV\u5efa\u7ba1\u7cfb
p120
(dp121
ssS'graph'
p122
(dp123
sS'root_graph'
p124
g4
sS'_pred'
p125
(dp126
g12
(dp127
V\u5168\u7403\u521b\u65b0\u5b66\u9662
p128
(dp129
sV\u5de5\u4e1a\u5de5\u7a0b\u7cfb
p130
(dp131
sV\u793e\u79d1\u5b66\u9662
p132
(dp133
sV\u751f\u547d\u5b66\u9662
p134
(dp135
sV\u7f8e\u672f\u5b66\u9662
p136
(dp137
ssg14
(dp138
V\u81ea\u52a8\u5316\u7cfb
p139
(dp140
sV\u7cbe\u4eea\u7cfb
p141
(dp142
sV\u5de5\u4e1a\u5de5\u7a0b\u7cfb
p143
(dp144
sV\u793e\u79d1\u5b66\u9662
p145
(dp146
sV\u5316\u5b66\u7cfb
p147
(dp148
sV\u7535\u5b50\u7cfb
p149
(dp150
sV\u70ed\u80fd\u7cfb
p151
(dp152
sV\u7535\u673a\u7cfb
p153
(dp154
sg36
(dp155
sV\u822a\u9662
p156
(dp157
sV\u5fae\u7eb3\u7535\u5b50\u7cfb
p158
(dp159
sV\u673a\u68b0\u7cfb
p160
(dp161
sV\u8f6f\u4ef6\u5b66\u9662
p162
(dp163
sV\u6c34\u5229\u7cfb
p164
(dp165
sV\u6cd5\u5b66\u9662
p166
(dp167
sV\u4eba\u6587\u5b66\u9662
p168
(dp169
sV\u751f\u547d\u5b66\u9662
p170
(dp171
sg68
(dp172
sg94
(dp173
sV\u6559\u7814\u9662
p174
(dp175
sV\u516c\u7ba1\u5b66\u9662
p176
(dp177
sV\u7ecf\u7ba1\u5b66\u9662
p178
(dp179
sV\u73af\u5883\u5b66\u9662
p180
(dp181
sV\u6c7d\u8f66\u7cfb
p182
(dp183
sV\u5316\u5de5\u7cfb
p184
(dp185
sV\u7269\u7406\u7cfb
p186
(dp187
sV\u673a\u68b0\u5b66\u9662
p188
(dp189
sV\u6838\u7814\u9662
p190
(dp191
sV\u6570\u5b66\u7cfb
p192
(dp193
sV\u7f8e\u672f\u5b66\u9662
p194
(dp195
sV\u5916\u6587\u7cfb
p196
(dp197
sV\u533b\u5b66\u9662
p198
(dp199
sg60
(dp200
sV\u5de5\u7269\u7cfb
p201
(dp202
sV\u571f\u6728\u7cfb
p203
(dp204
sV\u6750\u6599\u5b66\u9662
p205
(dp206
sV\u65b0\u95fb\u5b66\u9662
p207
(dp208
sV\u5efa\u7b51\u5b66\u9662
p209
(dp210
sV\u5efa\u7ba1\u7cfb
p211
(dp212
ssg16
(dp213
V\u81ea\u52a8\u5316\u7cfb
p214
(dp215
sV\u7cbe\u4eea\u7cfb
p216
(dp217
sV\u751f\u533b\u7cfb
p218
(dp219
sV\u5de5\u4e1a\u5de5\u7a0b\u7cfb
p220
(dp221
sV\u65b0\u95fb\u5b66\u9662
p222
(dp223
sV\u5316\u5b66\u7cfb
p224
(dp225
sV\u7535\u5b50\u7cfb
p226
(dp227
sV\u70ed\u80fd\u7cfb
p228
(dp229
sV\u7535\u673a\u7cfb
p230
(dp231
sg36
(dp232
sV\u822a\u9662
p233
(dp234
sV\u7ecf\u7ba1\u5b66\u9662
p235
(dp236
sV\u673a\u68b0\u7cfb
p237
(dp238
sV\u8f6f\u4ef6\u5b66\u9662
p239
(dp240
sV\u6c34\u5229\u7cfb
p241
(dp242
sV\u6cd5\u5b66\u9662
p243
(dp244
sV\u4eba\u6587\u5b66\u9662
p245
(dp246
sV\u751f\u547d\u5b66\u9662
p247
(dp248
sV\u4e2d\u6587\u7cfb
p249
(dp250
sV\u9a6c\u514b\u601d\u4e3b\u4e49\u5b66\u9662
p251
(dp252
sV\u6559\u7814\u9662
p253
(dp254
sV\u571f\u6728\u7cfb
p255
(dp256
sV\u5fae\u7eb3\u7535\u5b50\u7cfb
p257
(dp258
sV\u73af\u5883\u5b66\u9662
p259
(dp260
sV\u6c7d\u8f66\u7cfb
p261
(dp262
sV\u5316\u5de5\u7cfb
p263
(dp264
sV\u7269\u7406\u7cfb
p265
(dp266
sg86
(dp267
sV\u5efa\u7ba1\u7cfb
p268
(dp269
sV\u6570\u5b66\u7cfb
p270
(dp271
sV\u7f8e\u672f\u5b66\u9662
p272
(dp273
sV\u5916\u6587\u7cfb
p274
(dp275
sV\u533b\u5b66\u9662
p276
(dp277
sV\u5de5\u7269\u7cfb
p278
(dp279
sg60
(dp280
sV\u516c\u7ba1\u5b66\u9662
p281
(dp282
sV\u6750\u6599\u5b66\u9662
p283
(dp284
sV\u793e\u79d1\u5b66\u9662
p285
(dp286
sV\u5efa\u7b51\u5b66\u9662
p287
(dp288
sV\u6838\u7814\u9662
p289
(dp290
ssg18
(dp291
V\u7cbe\u4eea\u7cfb
p292
(dp293
sV\u751f\u533b\u7cfb
p294
(dp295
sV\u793e\u79d1\u5b66\u9662
p296
(dp297
sV\u5316\u5b66\u7cfb
p298
(dp299
sV\u7535\u5b50\u7cfb
p300
(dp301
sV\u7535\u673a\u7cfb
p302
(dp303
sV\u822a\u9662
p304
(dp305
sV\u7ecf\u7ba1\u5b66\u9662
p306
(dp307
sV\u8f6f\u4ef6\u5b66\u9662
p308
(dp309
sV\u6c34\u5229\u7cfb
p310
(dp311
sV\u6cd5\u5b66\u9662
p312
(dp313
sV\u4eba\u6587\u5b66\u9662
p314
(dp315
sV\u751f\u547d\u5b66\u9662
p316
(dp317
sV\u6559\u7814\u9662
p318
(dp319
sV\u5316\u5de5\u7cfb
p320
(dp321
sV\u7269\u7406\u7cfb
p322
(dp323
sV\u673a\u68b0\u5b66\u9662
p324
(dp325
sV\u6570\u5b66\u7cfb
p326
(dp327
sV\u7f8e\u672f\u5b66\u9662
p328
(dp329
sV\u533b\u5b66\u9662
p330
(dp331
sV\u5de5\u7269\u7cfb
p332
(dp333
sV\u571f\u6728\u7cfb
p334
(dp335
sV\u6750\u6599\u5b66\u9662
p336
(dp337
sV\u65b0\u95fb\u5b66\u9662
p338
(dp339
sV\u5916\u6587\u7cfb
p340
(dp341
ssg20
(dp342
sg22
(dp343
V\u81ea\u52a8\u5316\u7cfb
p344
(dp345
sV\u7cbe\u4eea\u7cfb
p346
(dp347
sV\u751f\u533b\u7cfb
p348
(dp349
sV\u5de5\u4e1a\u5de5\u7a0b\u7cfb
p350
(dp351
sV\u793e\u79d1\u5b66\u9662
p352
(dp353
sV\u5316\u5b66\u7cfb
p354
(dp355
sV\u7535\u5b50\u7cfb
p356
(dp357
sV\u70ed\u80fd\u7cfb
p358
(dp359
sg153
(dp360
sg36
(dp361
sV\u822a\u9662
p362
(dp363
sV\u5fae\u7eb3\u7535\u5b50\u7cfb
p364
(dp365
sV\u673a\u68b0\u7cfb
p366
(dp367
sV\u8f6f\u4ef6\u5b66\u9662
p368
(dp369
sV\u6c34\u5229\u7cfb
p370
(dp371
sg166
(dp372
sV\u65b0\u96c5\u4e66\u9662
p373
(dp374
sV\u4eba\u6587\u5b66\u9662
p375
(dp376
sV\u751f\u547d\u5b66\u9662
p377
(dp378
sV\u4e2d\u6587\u7cfb
p379
(dp380
sV\u6559\u7814\u9662
p381
(dp382
sV\u516c\u7ba1\u5b66\u9662
p383
(dp384
sV\u7ecf\u7ba1\u5b66\u9662
p385
(dp386
sV\u73af\u5883\u5b66\u9662
p387
(dp388
sV\u6c7d\u8f66\u7cfb
p389
(dp390
sV\u5916\u6587\u7cfb
p391
(dp392
sg184
(dp393
sV\u7269\u7406\u7cfb
p394
(dp395
sV\u673a\u68b0\u5b66\u9662
p396
(dp397
sV\u6838\u7814\u9662
p398
(dp399
sV\u6570\u5b66\u7cfb
p400
(dp401
sV\u7f8e\u672f\u5b66\u9662
p402
(dp403
sg62
(dp404
sV\u533b\u5b66\u9662
p405
(dp406
sg60
(dp407
sV\u5de5\u7269\u7cfb
p408
(dp409
sV\u571f\u6728\u7cfb
p410
(dp411
sV\u6750\u6599\u5b66\u9662
p412
(dp413
sV\u65b0\u95fb\u5b66\u9662
p414
(dp415
sV\u5efa\u7b51\u5b66\u9662
p416
(dp417
sV\u5efa\u7ba1\u7cfb
p418
(dp419
ssg24
(dp420
g214
(dp421
sV\u7cbe\u4eea\u7cfb
p422
(dp423
sV\u751f\u533b\u7cfb
p424
(dp425
sV\u5de5\u4e1a\u5de5\u7a0b\u7cfb
p426
(dp427
sV\u793e\u79d1\u5b66\u9662
p428
(dp429
sV\u5316\u5b66\u7cfb
p430
(dp431
sg356
(dp432
sV\u70ed\u80fd\u7cfb
p433
(dp434
sV\u7535\u673a\u7cfb
p435
(dp436
sg36
(dp437
sV\u5730\u5b66\u7cfb
p438
(dp439
sV\u822a\u9662
p440
(dp441
sV\u7ecf\u7ba1\u5b66\u9662
p442
(dp443
sV\u673a\u68b0\u7cfb
p444
(dp445
sV\u8f6f\u4ef6\u5b66\u9662
p446
(dp447
sV\u571f\u6728\u7cfb
p448
(dp449
sV\u6cd5\u5b66\u9662
p450
(dp451
sV\u65b0\u96c5\u4e66\u9662
p452
(dp453
sV\u4eba\u6587\u5b66\u9662
p454
(dp455
sV\u751f\u547d\u5b66\u9662
p456
(dp457
sg249
(dp458
sg381
(dp459
sV\u516c\u7ba1\u5b66\u9662
p460
(dp461
sV\u5fae\u7eb3\u7535\u5b50\u7cfb
p462
(dp463
sV\u73af\u5883\u5b66\u9662
p464
(dp465
sV\u6c7d\u8f66\u7cfb
p466
(dp467
sV\u5916\u6587\u7cfb
p468
(dp469
sV\u5316\u5de5\u7cfb
p470
(dp471
sV\u7269\u7406\u7cfb
p472
(dp473
sV\u673a\u68b0\u5b66\u9662
p474
(dp475
sg268
(dp476
sV\u6570\u5b66\u7cfb
p477
(dp478
sV\u7f8e\u672f\u5b66\u9662
p479
(dp480
sV\u9a6c\u514b\u601d\u4e3b\u4e49\u5b66\u9662
p481
(dp482
sV\u836f\u5b66\u9662
p483
(dp484
sV\u533b\u5b66\u9662
p485
(dp486
sg60
(dp487
sV\u5de5\u7269\u7cfb
p488
(dp489
sV\u6c34\u5229\u7cfb
p490
(dp491
sV\u6750\u6599\u5b66\u9662
p492
(dp493
sg112
(dp494
sV\u65b0\u95fb\u5b66\u9662
p495
(dp496
sV\u5efa\u7b51\u5b66\u9662
p497
(dp498
sg398
(dp499
ssg26
(dp500
V\u81ea\u52a8\u5316\u7cfb
p501
(dp502
sV\u6c34\u5229\u7cfb
p503
(dp504
sV\u7cbe\u4eea\u7cfb
p505
(dp506
sV\u751f\u533b\u7cfb
p507
(dp508
sV\u5de5\u4e1a\u5de5\u7a0b\u7cfb
p509
(dp510
sV\u793e\u79d1\u5b66\u9662
p511
(dp512
sV\u5316\u5b66\u7cfb
p513
(dp514
sV\u7535\u5b50\u7cfb
p515
(dp516
sV\u70ed\u80fd\u7cfb
p517
(dp518
sV\u7535\u673a\u7cfb
p519
(dp520
sg36
(dp521
sV\u822a\u9662
p522
(dp523
sV\u5fae\u7eb3\u7535\u5b50\u7cfb
p524
(dp525
sV\u673a\u68b0\u7cfb
p526
(dp527
sV\u8f6f\u4ef6\u5b66\u9662
p528
(dp529
sV\u571f\u6728\u7cfb
p530
(dp531
sV\u6cd5\u5b66\u9662
p532
(dp533
sV\u4eba\u6587\u5b66\u9662
p534
(dp535
sV\u751f\u547d\u5b66\u9662
p536
(dp537
sV\u6e05\u534e-\u4f2f\u514b\u5229\u6df1\u5733\u5b66\u9662
p538
(dp539
sV\u6559\u7814\u9662
p540
(dp541
sV\u516c\u7ba1\u5b66\u9662
p542
(dp543
sV\u7ecf\u7ba1\u5b66\u9662
p544
(dp545
sV\u73af\u5883\u5b66\u9662
p546
(dp547
sV\u6c7d\u8f66\u7cfb
p548
(dp549
sV\u5316\u5de5\u7cfb
p550
(dp551
sV\u7269\u7406\u7cfb
p552
(dp553
sV\u673a\u68b0\u5b66\u9662
p554
(dp555
sV\u6838\u7814\u9662
p556
(dp557
sV\u6570\u5b66\u7cfb
p558
(dp559
sV\u7f8e\u672f\u5b66\u9662
p560
(dp561
sV\u9a6c\u514b\u601d\u4e3b\u4e49\u5b66\u9662
p562
(dp563
sV\u836f\u5b66\u9662
p564
(dp565
sV\u533b\u5b66\u9662
p566
(dp567
sV\u5de5\u7269\u7cfb
p568
(dp569
sg60
(dp570
sV\u5916\u6587\u7cfb
p571
(dp572
sV\u6750\u6599\u5b66\u9662
p573
(dp574
sV\u91d1\u878d\u5b66\u9662
p575
(dp576
sV\u65b0\u95fb\u5b66\u9662
p577
(dp578
sV\u5efa\u7b51\u5b66\u9662
p579
(dp580
sV\u5efa\u7ba1\u7cfb
p581
(dp582
ssg28
(dp583
V\u81ea\u52a8\u5316\u7cfb
p584
(dp585
sV\u7cbe\u4eea\u7cfb
p586
(dp587
sV\u751f\u533b\u7cfb
p588
(dp589
sV\u5de5\u4e1a\u5de5\u7a0b\u7cfb
p590
(dp591
sV\u65b0\u95fb\u5b66\u9662
p592
(dp593
sV\u5316\u5b66\u7cfb
p594
(dp595
sV\u7535\u5b50\u7cfb
p596
(dp597
sV\u70ed\u80fd\u7cfb
p598
(dp599
sV\u7535\u673a\u7cfb
p600
(dp601
sg36
(dp602
sV\u822a\u9662
p603
(dp604
sV\u7ecf\u7ba1\u5b66\u9662
p605
(dp606
sV\u673a\u68b0\u7cfb
p607
(dp608
sV\u8f6f\u4ef6\u5b66\u9662
p609
(dp610
sV\u6c34\u5229\u7cfb
p611
(dp612
sV\u6cd5\u5b66\u9662
p613
(dp614
sV\u65b0\u96c5\u4e66\u9662
p615
(dp616
sV\u4eba\u6587\u5b66\u9662
p617
(dp618
sV\u751f\u547d\u5b66\u9662
p619
(dp620
sV\u4e2d\u6587\u7cfb
p621
(dp622
sV\u9a6c\u514b\u601d\u4e3b\u4e49\u5b66\u9662
p623
(dp624
sV\u6559\u7814\u9662
p625
(dp626
sV\u516c\u7ba1\u5b66\u9662
p627
(dp628
sV\u5fae\u7eb3\u7535\u5b50\u7cfb
p629
(dp630
sV\u73af\u5883\u5b66\u9662
p631
(dp632
sV\u6c7d\u8f66\u7cfb
p633
(dp634
sg287
(dp635
sV\u5316\u5de5\u7cfb
p636
(dp637
sg60
(dp638
sV\u673a\u68b0\u5b66\u9662
p639
(dp640
sV\u5efa\u7ba1\u7cfb
p641
(dp642
sV\u6570\u5b66\u7cfb
p643
(dp644
sV\u7269\u7406\u7cfb
p645
(dp646
sg560
(dp647
sg62
(dp648
sV\u533b\u5b66\u9662
p649
(dp650
sV\u5de5\u7269\u7cfb
p651
(dp652
sV\u571f\u6728\u7cfb
p653
(dp654
sV\u6750\u6599\u5b66\u9662
p655
(dp656
sV\u91d1\u878d\u5b66\u9662
p657
(dp658
sV\u793e\u79d1\u5b66\u9662
p659
(dp660
sV\u5916\u6587\u7cfb
p661
(dp662
sV\u5fae\u7535\u5b50\u6240
p663
(dp664
sV\u6838\u7814\u9662
p665
(dp666
ssg30
(dp667
V\u81ea\u52a8\u5316\u7cfb
p668
(dp669
sg141
(dp670
sV\u751f\u533b\u7cfb
p671
(dp672
sV\u5de5\u4e1a\u5de5\u7a0b\u7cfb
p673
(dp674
sV\u793e\u79d1\u5b66\u9662
p675
(dp676
sV\u5316\u5b66\u7cfb
p677
(dp678
sV\u7535\u5b50\u7cfb
p679
(dp680
sV\u70ed\u80fd\u7cfb
p681
(dp682
sV\u7535\u673a\u7cfb
p683
(dp684
sg36
(dp685
sV\u822a\u9662
p686
(dp687
sV\u7ecf\u7ba1\u5b66\u9662
p688
(dp689
sV\u673a\u68b0\u7cfb
p690
(dp691
sV\u8f6f\u4ef6\u5b66\u9662
p692
(dp693
sg410
(dp694
sV\u6cd5\u5b66\u9662
p695
(dp696
sV\u65b0\u96c5\u4e66\u9662
p697
(dp698
sV\u4eba\u6587\u5b66\u9662
p699
(dp700
sV\u751f\u547d\u5b66\u9662
p701
(dp702
sV\u4e2d\u6587\u7cfb
p703
(dp704
sV\u6559\u7814\u9662
p705
(dp706
sV\u516c\u7ba1\u5b66\u9662
p707
(dp708
sV\u5fae\u7eb3\u7535\u5b50\u7cfb
p709
(dp710
sV\u73af\u5883\u5b66\u9662
p711
(dp712
sg182
(dp713
sV\u5316\u5de5\u7cfb
p714
(dp715
sV\u7269\u7406\u7cfb
p716
(dp717
sV\u673a\u68b0\u5b66\u9662
p718
(dp719
sV\u6838\u7814\u9662
p720
(dp721
sV\u6570\u5b66\u7cfb
p722
(dp723
sV\u7f8e\u672f\u5b66\u9662
p724
(dp725
sV\u9a6c\u514b\u601d\u4e3b\u4e49\u5b66\u9662
p726
(dp727
sV\u65b0\u95fb\u5b66\u9662
p728
(dp729
sg405
(dp730
sg60
(dp731
sV\u5de5\u7269\u7cfb
p732
(dp733
sV\u6c34\u5229\u7cfb
p734
(dp735
sV\u6750\u6599\u5b66\u9662
p736
(dp737
sV\u5efa\u7b51\u5b66\u9662
p738
(dp739
sV\u836f\u5b66\u9662
p740
(dp741
sV\u5916\u6587\u7cfb
p742
(dp743
sg102
(dp744
sg211
(dp745
ssg32
(dp746
V\u81ea\u52a8\u5316\u7cfb
p747
(dp748
sV\u6c34\u5229\u7cfb
p749
(dp750
sV\u7cbe\u4eea\u7cfb
p751
(dp752
sV\u5de5\u4e1a\u5de5\u7a0b\u7cfb
p753
(dp754
sV\u65b0\u95fb\u5b66\u9662
p755
(dp756
sV\u5316\u5b66\u7cfb
p757
(dp758
sV\u7535\u5b50\u7cfb
p759
(dp760
sV\u70ed\u80fd\u7cfb
p761
(dp762
sV\u7535\u673a\u7cfb
p763
(dp764
sg36
(dp765
sV\u822a\u9662
p766
(dp767
sV\u7ecf\u7ba1\u5b66\u9662
p768
(dp769
sV\u673a\u68b0\u7cfb
p770
(dp771
sV\u8f6f\u4ef6\u5b66\u9662
p772
(dp773
sV\u571f\u6728\u7cfb
p774
(dp775
sV\u6cd5\u5b66\u9662
p776
(dp777
sV\u4eba\u6587\u5b66\u9662
p778
(dp779
sV\u751f\u547d\u5b66\u9662
p780
(dp781
sV\u4e2d\u6587\u7cfb
p782
(dp783
sg381
(dp784
sV\u516c\u7ba1\u5b66\u9662
p785
(dp786
sV\u5fae\u7eb3\u7535\u5b50\u7cfb
p787
(dp788
sV\u73af\u5883\u5b66\u9662
p789
(dp790
sV\u6c7d\u8f66\u7cfb
p791
(dp792
sV\u5efa\u7b51\u5b66\u9662
p793
(dp794
sV\u5316\u5de5\u7cfb
p795
(dp796
sV\u7269\u7406\u7cfb
p797
(dp798
sV\u673a\u68b0\u5b66\u9662
p799
(dp800
sg398
(dp801
sV\u6570\u5b66\u7cfb
p802
(dp803
sV\u7f8e\u672f\u5b66\u9662
p804
(dp805
sV\u836f\u5b66\u9662
p806
(dp807
sg198
(dp808
sV\u5de5\u7269\u7cfb
p809
(dp810
sg60
(dp811
sV\u6750\u6599\u5b66\u9662
p812
(dp813
sV\u793e\u79d1\u5b66\u9662
p814
(dp815
sV\u5916\u6587\u7cfb
p816
(dp817
sV\u5efa\u7ba1\u7cfb
p818
(dp819
ssg34
(dp820
V\u5730\u5b66\u7cfb
p821
(dp822
sV\u7535\u5b50\u7cfb
p823
(dp824
sV\u822a\u9662
p825
(dp826
sV\u571f\u6728\u7cfb
p827
(dp828
ssg36
(dp829
V\u81ea\u52a8\u5316\u7cfb
p830
(dp831
sg346
(dp832
sg590
(dp833
sV\u65b0\u95fb\u5b66\u9662
p834
(dp835
sV\u5316\u5b66\u7cfb
p836
(dp837
sV\u7535\u5b50\u7cfb
p838
(dp839
sV\u70ed\u80fd\u7cfb
p840
(dp841
sg435
(dp842
sg36
(dp843
sV\u822a\u9662
p844
(dp845
sV\u5fae\u7eb3\u7535\u5b50\u7cfb
p846
(dp847
sV\u673a\u68b0\u7cfb
p848
(dp849
sV\u8f6f\u4ef6\u5b66\u9662
p850
(dp851
sV\u571f\u6728\u7cfb
p852
(dp853
sV\u6cd5\u5b66\u9662
p854
(dp855
sg479
(dp856
sV\u4eba\u6587\u5b66\u9662
p857
(dp858
sV\u751f\u547d\u5b66\u9662
p859
(dp860
sV\u9ad8\u7814\u9662
p861
(dp862
sV\u4e2d\u6587\u7cfb
p863
(dp864
sV\u9a6c\u514b\u601d\u4e3b\u4e49\u5b66\u9662
p865
(dp866
sg318
(dp867
sg383
(dp868
sV\u7ecf\u7ba1\u5b66\u9662
p869
(dp870
sV\u73af\u5883\u5b66\u9662
p871
(dp872
sV\u6c7d\u8f66\u7cfb
p873
(dp874
sV\u5316\u5de5\u7cfb
p875
(dp876
sV\u7269\u7406\u7cfb
p877
(dp878
sV\u673a\u68b0\u5b66\u9662
p879
(dp880
sV\u5efa\u7ba1\u7cfb
p881
(dp882
sV\u6570\u5b66\u7cfb
p883
(dp884
sV\u6c34\u5229\u7cfb
p885
(dp886
sg468
(dp887
sV\u533b\u5b66\u9662
p888
(dp889
sV\u5de5\u7269\u7cfb
p890
(dp891
sg60
(dp892
sV\u6750\u6599\u5b66\u9662
p893
(dp894
sV\u91d1\u878d\u5b66\u9662
p895
(dp896
sV\u793e\u79d1\u5b66\u9662
p897
(dp898
sV\u5efa\u7b51\u5b66\u9662
p899
(dp900
sV\u6838\u7814\u9662
p901
(dp902
ssg38
(dp903
g830
(dp904
sV\u6c34\u5229\u7cfb
p905
(dp906
sV\u7cbe\u4eea\u7cfb
p907
(dp908
sg18
(dp909
sV\u5de5\u4e1a\u5de5\u7a0b\u7cfb
p910
(dp911
sV\u65b0\u95fb\u5b66\u9662
p912
(dp913
sV\u5316\u5b66\u7cfb
p914
(dp915
sV\u7535\u5b50\u7cfb
p916
(dp917
sV\u70ed\u80fd\u7cfb
p918
(dp919
sg435
(dp920
sg36
(dp921
sV\u822a\u9662
p922
(dp923
sV\u5fae\u7eb3\u7535\u5b50\u7cfb
p924
(dp925
sV\u673a\u68b0\u7cfb
p926
(dp927
sV\u8f6f\u4ef6\u5b66\u9662
p928
(dp929
sV\u571f\u6728\u7cfb
p930
(dp931
sV\u6cd5\u5b66\u9662
p932
(dp933
sV\u4eba\u6587\u5b66\u9662
p934
(dp935
sV\u751f\u547d\u5b66\u9662
p936
(dp937
sV\u9ad8\u7814\u9662
p938
(dp939
sV\u4e2d\u6587\u7cfb
p940
(dp941
sg381
(dp942
sV\u516c\u7ba1\u5b66\u9662
p943
(dp944
sV\u7ecf\u7ba1\u5b66\u9662
p945
(dp946
sV\u73af\u5883\u5b66\u9662
p947
(dp948
sV\u6c7d\u8f66\u7cfb
p949
(dp950
sV\u5916\u6587\u7cfb
p951
(dp952
sV\u5316\u5de5\u7cfb
p953
(dp954
sV\u7269\u7406\u7cfb
p955
(dp956
sV\u673a\u68b0\u5b66\u9662
p957
(dp958
sV\u6838\u7814\u9662
p959
(dp960
sV\u6570\u5b66\u7cfb
p961
(dp962
sV\u7f8e\u672f\u5b66\u9662
p963
(dp964
sV\u533b\u5b66\u9662
p965
(dp966
sV\u5de5\u7269\u7cfb
p967
(dp968
sg60
(dp969
sV\u6750\u6599\u5b66\u9662
p970
(dp971
sV\u793e\u79d1\u5b66\u9662
p972
(dp973
sg209
(dp974
ssg40
(dp975
V\u81ea\u52a8\u5316\u7cfb
p976
(dp977
sg346
(dp978
sg143
(dp979
sV\u793e\u79d1\u5b66\u9662
p980
(dp981
sV\u7535\u5b50\u7cfb
p982
(dp983
sV\u70ed\u80fd\u7cfb
p984
(dp985
sV\u7535\u673a\u7cfb
p986
(dp987
sg36
(dp988
sg362
(dp989
sV\u5fae\u7eb3\u7535\u5b50\u7cfb
p990
(dp991
sV\u8f6f\u4ef6\u5b66\u9662
p992
(dp993
sV\u571f\u6728\u7cfb
p994
(dp995
sV\u6cd5\u5b66\u9662
p996
(dp997
sV\u4eba\u6587\u5b66\u9662
p998
(dp999
sV\u751f\u547d\u5b66\u9662
p1000
(dp1001
sV\u9ad8\u7814\u9662
p1002
(dp1003
sV\u4e2d\u6587\u7cfb
p1004
(dp1005
sV\u6559\u7814\u9662
p1006
(dp1007
sV\u516c\u7ba1\u5b66\u9662
p1008
(dp1009
sg72
(dp1010
sV\u73af\u5883\u5b66\u9662
p1011
(dp1012
sV\u6c7d\u8f66\u7cfb
p1013
(dp1014
sV\u5916\u6587\u7cfb
p1015
(dp1016
sV\u5316\u5de5\u7cfb
p1017
(dp1018
sg60
(dp1019
sg556
(dp1020
sg402
(dp1021
sV\u533b\u5b66\u9662
p1022
(dp1023
sV\u5de5\u7269\u7cfb
p1024
(dp1025
sV\u6c34\u5229\u7cfb
p1026
(dp1027
sV\u6750\u6599\u5b66\u9662
p1028
(dp1029
sV\u91d1\u878d\u5b66\u9662
p1030
(dp1031
sV\u5efa\u7b51\u5b66\u9662
p1032
(dp1033
sV\u5fae\u7535\u5b50\u6240
p1034
(dp1035
ssg42
(dp1036
V\u81ea\u52a8\u5316\u7cfb
p1037
(dp1038
sV\u7cbe\u4eea\u7cfb
p1039
(dp1040
sV\u751f\u533b\u7cfb
p1041
(dp1042
sV\u5de5\u4e1a\u5de5\u7a0b\u7cfb
p1043
(dp1044
sV\u65b0\u95fb\u5b66\u9662
p1045
(dp1046
sV\u5316\u5b66\u7cfb
p1047
(dp1048
sV\u7535\u5b50\u7cfb
p1049
(dp1050
sV\u70ed\u80fd\u7cfb
p1051
(dp1052
sV\u7535\u673a\u7cfb
p1053
(dp1054
sg36
(dp1055
sV\u822a\u9662
p1056
(dp1057
sV\u7ecf\u7ba1\u5b66\u9662
p1058
(dp1059
sV\u673a\u68b0\u7cfb
p1060
(dp1061
sV\u8f6f\u4ef6\u5b66\u9662
p1062
(dp1063
sV\u571f\u6728\u7cfb
p1064
(dp1065
sV\u6cd5\u5b66\u9662
p1066
(dp1067
sV\u4eba\u6587\u5b66\u9662
p1068
(dp1069
sV\u751f\u547d\u5b66\u9662
p1070
(dp1071
sg861
(dp1072
sV\u4e2d\u6587\u7cfb
p1073
(dp1074
sg625
(dp1075
sV\u516c\u7ba1\u5b66\u9662
p1076
(dp1077
sV\u5fae\u7eb3\u7535\u5b50\u7cfb
p1078
(dp1079
sV\u73af\u5883\u5b66\u9662
p1080
(dp1081
sV\u6c7d\u8f66\u7cfb
p1082
(dp1083
sV\u5316\u5de5\u7cfb
p1084
(dp1085
sV\u7269\u7406\u7cfb
p1086
(dp1087
sV\u673a\u68b0\u5b66\u9662
p1088
(dp1089
sV\u6838\u7814\u9662
p1090
(dp1091
sV\u6570\u5b66\u7cfb
p1092
(dp1093
sV\u7f8e\u672f\u5b66\u9662
p1094
(dp1095
sV\u5916\u6587\u7cfb
p1096
(dp1097
sV\u533b\u5b66\u9662
p1098
(dp1099
sg60
(dp1100
sV\u5de5\u7269\u7cfb
p1101
(dp1102
sV\u6c34\u5229\u7cfb
p1103
(dp1104
sg573
(dp1105
sV\u91d1\u878d\u5b66\u9662
p1106
(dp1107
sg972
(dp1108
sg209
(dp1109
sV\u5efa\u7ba1\u7cfb
p1110
(dp1111
ssg44
(dp1112
V\u81ea\u52a8\u5316\u7cfb
p1113
(dp1114
sg141
(dp1115
sg671
(dp1116
sg590
(dp1117
sV\u65b0\u95fb\u5b66\u9662
p1118
(dp1119
sV\u5316\u5b66\u7cfb
p1120
(dp1121
sg838
(dp1122
sV\u70ed\u80fd\u7cfb
p1123
(dp1124
sg153
(dp1125
sg36
(dp1126
sg522
(dp1127
sV\u7ecf\u7ba1\u5b66\u9662
p1128
(dp1129
sV\u673a\u68b0\u7cfb
p1130
(dp1131
sV\u8f6f\u4ef6\u5b66\u9662
p1132
(dp1133
sV\u6c34\u5229\u7cfb
p1134
(dp1135
sV\u6cd5\u5b66\u9662
p1136
(dp1137
sV\u4eba\u6587\u5b66\u9662
p1138
(dp1139
sV\u751f\u547d\u5b66\u9662
p1140
(dp1141
sV\u4e2d\u6587\u7cfb
p1142
(dp1143
sg381
(dp1144
sV\u516c\u7ba1\u5b66\u9662
p1145
(dp1146
sV\u5fae\u7eb3\u7535\u5b50\u7cfb
p1147
(dp1148
sV\u73af\u5883\u5b66\u9662
p1149
(dp1150
sV\u6c7d\u8f66\u7cfb
p1151
(dp1152
sV\u5316\u5de5\u7cfb
p1153
(dp1154
sV\u7269\u7406\u7cfb
p1155
(dp1156
sV\u673a\u68b0\u5b66\u9662
p1157
(dp1158
sg211
(dp1159
sg883
(dp1160
sV\u7f8e\u672f\u5b66\u9662
p1161
(dp1162
sV\u9a6c\u514b\u601d\u4e3b\u4e49\u5b66\u9662
p1163
(dp1164
sg405
(dp1165
sg60
(dp1166
sV\u5de5\u7269\u7cfb
p1167
(dp1168
sg448
(dp1169
sg468
(dp1170
sV\u6750\u6599\u5b66\u9662
p1171
(dp1172
sV\u793e\u79d1\u5b66\u9662
p1173
(dp1174
sV\u5efa\u7b51\u5b66\u9662
p1175
(dp1176
sV\u5fae\u7535\u5b50\u6240
p1177
(dp1178
sg556
(dp1179
ssg46
(dp1180
V\u5168\u7403\u521b\u65b0\u5b66\u9662
p1181
(dp1182
sV\u81ea\u52a8\u5316\u7cfb
p1183
(dp1184
sV\u7cbe\u4eea\u7cfb
p1185
(dp1186
sV\u5de5\u4e1a\u5de5\u7a0b\u7cfb
p1187
(dp1188
sV\u793e\u79d1\u5b66\u9662
p1189
(dp1190
sV\u5316\u5b66\u7cfb
p1191
(dp1192
sV\u7535\u5b50\u7cfb
p1193
(dp1194
sg151
(dp1195
sV\u7535\u673a\u7cfb
p1196
(dp1197
sg36
(dp1198
sV\u5730\u5b66\u7cfb
p1199
(dp1200
sV\u822a\u9662
p1201
(dp1202
sV\u7ecf\u7ba1\u5b66\u9662
p1203
(dp1204
sV\u673a\u68b0\u7cfb
p1205
(dp1206
sV\u8f6f\u4ef6\u5b66\u9662
p1207
(dp1208
sV\u6c34\u5229\u7cfb
p1209
(dp1210
sV\u6cd5\u5b66\u9662
p1211
(dp1212
sg617
(dp1213
sV\u751f\u547d\u5b66\u9662
p1214
(dp1215
sg703
(dp1216
sV\u6559\u7814\u9662
p1217
(dp1218
sV\u571f\u6728\u7cfb
p1219
(dp1220
sV\u5fae\u7eb3\u7535\u5b50\u7cfb
p1221
(dp1222
sV\u73af\u5883\u5b66\u9662
p1223
(dp1224
sg182
(dp1225
sV\u5316\u5de5\u7cfb
p1226
(dp1227
sV\u7269\u7406\u7cfb
p1228
(dp1229
sV\u673a\u68b0\u5b66\u9662
p1230
(dp1231
sg665
(dp1232
sV\u6570\u5b66\u7cfb
p1233
(dp1234
sV\u7f8e\u672f\u5b66\u9662
p1235
(dp1236
sV\u9a6c\u514b\u601d\u4e3b\u4e49\u5b66\u9662
p1237
(dp1238
sV\u836f\u5b66\u9662
p1239
(dp1240
sV\u533b\u5b66\u9662
p1241
(dp1242
sV\u5de5\u7269\u7cfb
p1243
(dp1244
sg60
(dp1245
sV\u5916\u6587\u7cfb
p1246
(dp1247
sV\u516c\u7ba1\u5b66\u9662
p1248
(dp1249
sV\u6750\u6599\u5b66\u9662
p1250
(dp1251
sg222
(dp1252
sV\u5efa\u7b51\u5b66\u9662
p1253
(dp1254
sV\u5efa\u7ba1\u7cfb
p1255
(dp1256
ssg48
(dp1257
V\u81ea\u52a8\u5316\u7cfb
p1258
(dp1259
sV\u7cbe\u4eea\u7cfb
p1260
(dp1261
sV\u751f\u533b\u7cfb
p1262
(dp1263
sg673
(dp1264
sV\u65b0\u95fb\u5b66\u9662
p1265
(dp1266
sg513
(dp1267
sV\u7535\u5b50\u7cfb
p1268
(dp1269
sg517
(dp1270
sV\u7535\u673a\u7cfb
p1271
(dp1272
sg36
(dp1273
sV\u822a\u9662
p1274
(dp1275
sg945
(dp1276
sV\u673a\u68b0\u7cfb
p1277
(dp1278
sV\u8f6f\u4ef6\u5b66\u9662
p1279
(dp1280
sV\u6c34\u5229\u7cfb
p1281
(dp1282
sV\u6cd5\u5b66\u9662
p1283
(dp1284
sV\u65b0\u96c5\u4e66\u9662
p1285
(dp1286
sV\u4eba\u6587\u5b66\u9662
p1287
(dp1288
sg536
(dp1289
sV\u9ad8\u7814\u9662
p1290
(dp1291
sg94
(dp1292
sg381
(dp1293
sV\u516c\u7ba1\u5b66\u9662
p1294
(dp1295
sg364
(dp1296
sV\u73af\u5883\u5b66\u9662
p1297
(dp1298
sV\u6c7d\u8f66\u7cfb
p1299
(dp1300
sV\u5316\u5de5\u7cfb
p1301
(dp1302
sV\u7269\u7406\u7cfb
p1303
(dp1304
sV\u673a\u68b0\u5b66\u9662
p1305
(dp1306
sV\u6838\u7814\u9662
p1307
(dp1308
sV\u6570\u5b66\u7cfb
p1309
(dp1310
sg402
(dp1311
sV\u5916\u6587\u7cfb
p1312
(dp1313
sV\u836f\u5b66\u9662
p1314
(dp1315
sg566
(dp1316
sg60
(dp1317
sV\u5de5\u7269\u7cfb
p1318
(dp1319
sV\u571f\u6728\u7cfb
p1320
(dp1321
sg573
(dp1322
sg575
(dp1323
sV\u793e\u79d1\u5b66\u9662
p1324
(dp1325
sV\u5efa\u7b51\u5b66\u9662
p1326
(dp1327
sV\u5efa\u7ba1\u7cfb
p1328
(dp1329
ssg50
(dp1330
g1285
(dp1331
ssg52
(dp1332
g830
(dp1333
sg346
(dp1334
sg507
(dp1335
sV\u5de5\u4e1a\u5de5\u7a0b\u7cfb
p1336
(dp1337
sV\u793e\u79d1\u5b66\u9662
p1338
(dp1339
sV\u5316\u5b66\u7cfb
p1340
(dp1341
sg838
(dp1342
sV\u70ed\u80fd\u7cfb
p1343
(dp1344
sV\u7535\u673a\u7cfb
p1345
(dp1346
sg36
(dp1347
sV\u5730\u5b66\u7cfb
p1348
(dp1349
sV\u822a\u9662
p1350
(dp1351
sg945
(dp1352
sV\u673a\u68b0\u7cfb
p1353
(dp1354
sV\u8f6f\u4ef6\u5b66\u9662
p1355
(dp1356
sV\u6c34\u5229\u7cfb
p1357
(dp1358
sV\u6cd5\u5b66\u9662
p1359
(dp1360
sV\u65b0\u96c5\u4e66\u9662
p1361
(dp1362
sV\u4eba\u6587\u5b66\u9662
p1363
(dp1364
sg456
(dp1365
sV\u9ad8\u7814\u9662
p1366
(dp1367
sV\u4e2d\u6587\u7cfb
p1368
(dp1369
sg1217
(dp1370
sV\u516c\u7ba1\u5b66\u9662
p1371
(dp1372
sg40
(dp1373
sV\u73af\u5883\u5b66\u9662
p1374
(dp1375
sV\u6c7d\u8f66\u7cfb
p1376
(dp1377
sV\u5efa\u7b51\u5b66\u9662
p1378
(dp1379
sg470
(dp1380
sV\u7269\u7406\u7cfb
p1381
(dp1382
sV\u673a\u68b0\u5b66\u9662
p1383
(dp1384
sV\u6838\u7814\u9662
p1385
(dp1386
sV\u6570\u5b66\u7cfb
p1387
(dp1388
sV\u7f8e\u672f\u5b66\u9662
p1389
(dp1390
sV\u9a6c\u514b\u601d\u4e3b\u4e49\u5b66\u9662
p1391
(dp1392
sg740
(dp1393
sg965
(dp1394
sg60
(dp1395
sV\u5de5\u7269\u7cfb
p1396
(dp1397
sV\u571f\u6728\u7cfb
p1398
(dp1399
sV\u6750\u6599\u5b66\u9662
p1400
(dp1401
sV\u91d1\u878d\u5b66\u9662
p1402
(dp1403
sg728
(dp1404
sV\u5916\u6587\u7cfb
p1405
(dp1406
sV\u80fd\u52a8\u7cfb
p1407
(dp1408
sV\u5efa\u7ba1\u7cfb
p1409
(dp1410
ssg54
(dp1411
V\u81ea\u52a8\u5316\u7cfb
p1412
(dp1413
sg505
(dp1414
sV\u751f\u533b\u7cfb
p1415
(dp1416
sV\u5de5\u4e1a\u5de5\u7a0b\u7cfb
p1417
(dp1418
sV\u65b0\u95fb\u5b66\u9662
p1419
(dp1420
sV\u5316\u5b66\u7cfb
p1421
(dp1422
sV\u7535\u5b50\u7cfb
p1423
(dp1424
sg517
(dp1425
sg153
(dp1426
sg36
(dp1427
sV\u5730\u5b66\u7cfb
p1428
(dp1429
sV\u822a\u9662
p1430
(dp1431
sg945
(dp1432
sV\u673a\u68b0\u7cfb
p1433
(dp1434
sV\u8f6f\u4ef6\u5b66\u9662
p1435
(dp1436
sV\u571f\u6728\u7cfb
p1437
(dp1438
sg312
(dp1439
sV\u65b0\u96c5\u4e66\u9662
p1440
(dp1441
sg534
(dp1442
sg377
(dp1443
sg1004
(dp1444
sg381
(dp1445
sg1294
(dp1446
sV\u5fae\u7eb3\u7535\u5b50\u7cfb
p1447
(dp1448
sg1374
(dp1449
sV\u6c7d\u8f66\u7cfb
p1450
(dp1451
sg1153
(dp1452
sV\u7269\u7406\u7cfb
p1453
(dp1454
sV\u673a\u68b0\u5b66\u9662
p1455
(dp1456
sV\u6838\u7814\u9662
p1457
(dp1458
sV\u6570\u5b66\u7cfb
p1459
(dp1460
sV\u7f8e\u672f\u5b66\u9662
p1461
(dp1462
sV\u9a6c\u514b\u601d\u4e3b\u4e49\u5b66\u9662
p1463
(dp1464
sV\u836f\u5b66\u9662
p1465
(dp1466
sV\u533b\u5b66\u9662
p1467
(dp1468
sg60
(dp1469
sV\u5de5\u7269\u7cfb
p1470
(dp1471
sV\u6c34\u5229\u7cfb
p1472
(dp1473
sV\u5efa\u7b51\u5b66\u9662
p1474
(dp1475
sg573
(dp1476
sV\u91d1\u878d\u5b66\u9662
p1477
(dp1478
sV\u793e\u79d1\u5b66\u9662
p1479
(dp1480
sg78
(dp1481
ssg56
(dp1482
V\u5316\u5de5\u7cfb
p1483
(dp1484
sV\u7269\u7406\u7cfb
p1485
(dp1486
sV\u6750\u6599\u5b66\u9662
p1487
(dp1488
sV\u5316\u5b66\u7cfb
p1489
(dp1490
sg861
(dp1491
sV\u5efa\u7b51\u5b66\u9662
p1492
(dp1493
sV\u6559\u7814\u9662
p1494
(dp1495
ssg58
(dp1496
V\u81ea\u52a8\u5316\u7cfb
p1497
(dp1498
sV\u7cbe\u4eea\u7cfb
p1499
(dp1500
sV\u5de5\u4e1a\u5de5\u7a0b\u7cfb
p1501
(dp1502
sg132
(dp1503
sV\u5316\u5b66\u7cfb
p1504
(dp1505
sV\u7535\u5b50\u7cfb
p1506
(dp1507
sg153
(dp1508
sg36
(dp1509
sg362
(dp1510
sg235
(dp1511
sV\u673a\u68b0\u7cfb
p1512
(dp1513
sV\u8f6f\u4ef6\u5b66\u9662
p1514
(dp1515
sV\u571f\u6728\u7cfb
p1516
(dp1517
sg312
(dp1518
sg1363
(dp1519
sV\u751f\u547d\u5b66\u9662
p1520
(dp1521
sg940
(dp1522
sV\u73af\u5883\u5b66\u9662
p1523
(dp1524
sV\u6c7d\u8f66\u7cfb
p1525
(dp1526
sV\u5316\u5de5\u7cfb
p1527
(dp1528
sg322
(dp1529
sV\u6838\u7814\u9662
p1530
(dp1531
sV\u7f8e\u672f\u5b66\u9662
p1532
(dp1533
sV\u5916\u6587\u7cfb
p1534
(dp1535
sg405
(dp1536
sV\u5de5\u7269\u7cfb
p1537
(dp1538
sV\u6c34\u5229\u7cfb
p1539
(dp1540
sV\u6750\u6599\u5b66\u9662
p1541
(dp1542
sg414
(dp1543
sV\u5efa\u7b51\u5b66\u9662
p1544
(dp1545
ssg60
(dp1546
V\u81ea\u52a8\u5316\u7cfb
p1547
(dp1548
sV\u7cbe\u4eea\u7cfb
p1549
(dp1550
sg1262
(dp1551
sV\u5de5\u4e1a\u5de5\u7a0b\u7cfb
p1552
(dp1553
sV\u65b0\u95fb\u5b66\u9662
p1554
(dp1555
sV\u5316\u5b66\u7cfb
p1556
(dp1557
sV\u7535\u5b50\u7cfb
p1558
(dp1559
sV\u70ed\u80fd\u7cfb
p1560
(dp1561
sV\u7535\u673a\u7cfb
p1562
(dp1563
sg36
(dp1564
sV\u822a\u9662
p1565
(dp1566
sV\u7ecf\u7ba1\u5b66\u9662
p1567
(dp1568
sV\u673a\u68b0\u7cfb
p1569
(dp1570
sV\u8f6f\u4ef6\u5b66\u9662
p1571
(dp1572
sV\u571f\u6728\u7cfb
p1573
(dp1574
sV\u6cd5\u5b66\u9662
p1575
(dp1576
sV\u7f8e\u672f\u5b66\u9662
p1577
(dp1578
sV\u4eba\u6587\u5b66\u9662
p1579
(dp1580
sg54
(dp1581
sg253
(dp1582
sV\u516c\u7ba1\u5b66\u9662
p1583
(dp1584
sg787
(dp1585
sV\u73af\u5883\u5b66\u9662
p1586
(dp1587
sV\u6c7d\u8f66\u7cfb
p1588
(dp1589
sV\u5316\u5de5\u7cfb
p1590
(dp1591
sV\u7269\u7406\u7cfb
p1592
(dp1593
sV\u6838\u7814\u9662
p1594
(dp1595
sg961
(dp1596
sV\u6c34\u5229\u7cfb
p1597
(dp1598
sV\u533b\u5b66\u9662
p1599
(dp1600
sV\u5de5\u7269\u7cfb
p1601
(dp1602
sg60
(dp1603
sV\u6750\u6599\u5b66\u9662
p1604
(dp1605
sV\u793e\u79d1\u5b66\u9662
p1606
(dp1607
sV\u5efa\u7b51\u5b66\u9662
p1608
(dp1609
ssg62
(dp1610
V\u5de5\u4e1a\u5de5\u7a0b\u7cfb
p1611
(dp1612
sV\u7535\u5b50\u7cfb
p1613
(dp1614
sg1008
(dp1615
sg761
(dp1616
sg62
(dp1617
ssg64
(dp1618
V\u81ea\u52a8\u5316\u7cfb
p1619
(dp1620
sV\u7cbe\u4eea\u7cfb
p1621
(dp1622
sV\u751f\u533b\u7cfb
p1623
(dp1624
sV\u5de5\u4e1a\u5de5\u7a0b\u7cfb
p1625
(dp1626
sg897
(dp1627
sV\u5316\u5b66\u7cfb
p1628
(dp1629
sV\u7535\u5b50\u7cfb
p1630
(dp1631
sV\u70ed\u80fd\u7cfb
p1632
(dp1633
sV\u7535\u673a\u7cfb
p1634
(dp1635
sg36
(dp1636
sV\u822a\u9662
p1637
(dp1638
sV\u7ecf\u7ba1\u5b66\u9662
p1639
(dp1640
sV\u673a\u68b0\u7cfb
p1641
(dp1642
sg850
(dp1643
sV\u571f\u6728\u7cfb
p1644
(dp1645
sV\u6cd5\u5b66\u9662
p1646
(dp1647
sV\u4eba\u6587\u5b66\u9662
p1648
(dp1649
sV\u751f\u547d\u5b66\u9662
p1650
(dp1651
sV\u4e2d\u6587\u7cfb
p1652
(dp1653
sg1217
(dp1654
sV\u516c\u7ba1\u5b66\u9662
p1655
(dp1656
sV\u5fae\u7eb3\u7535\u5b50\u7cfb
p1657
(dp1658
sV\u73af\u5883\u5b66\u9662
p1659
(dp1660
sV\u6c7d\u8f66\u7cfb
p1661
(dp1662
sV\u5916\u6587\u7cfb
p1663
(dp1664
sg1084
(dp1665
sV\u7269\u7406\u7cfb
p1666
(dp1667
sV\u673a\u68b0\u5b66\u9662
p1668
(dp1669
sV\u6838\u7814\u9662
p1670
(dp1671
sV\u6570\u5b66\u7cfb
p1672
(dp1673
sV\u7f8e\u672f\u5b66\u9662
p1674
(dp1675
sV\u9a6c\u514b\u601d\u4e3b\u4e49\u5b66\u9662
p1676
(dp1677
sV\u533b\u5b66\u9662
p1678
(dp1679
sg60
(dp1680
sV\u5de5\u7269\u7cfb
p1681
(dp1682
sV\u6c34\u5229\u7cfb
p1683
(dp1684
sV\u6750\u6599\u5b66\u9662
p1685
(dp1686
sg1106
(dp1687
sV\u65b0\u95fb\u5b66\u9662
p1688
(dp1689
sV\u5efa\u7b51\u5b66\u9662
p1690
(dp1691
sV\u5efa\u7ba1\u7cfb
p1692
(dp1693
ssg66
(dp1694
V\u81ea\u52a8\u5316\u7cfb
p1695
(dp1696
sV\u7cbe\u4eea\u7cfb
p1697
(dp1698
sg143
(dp1699
sV\u793e\u79d1\u5b66\u9662
p1700
(dp1701
sV\u5316\u5b66\u7cfb
p1702
(dp1703
sg838
(dp1704
sV\u70ed\u80fd\u7cfb
p1705
(dp1706
sg153
(dp1707
sg36
(dp1708
sV\u822a\u9662
p1709
(dp1710
sV\u7ecf\u7ba1\u5b66\u9662
p1711
(dp1712
sV\u673a\u68b0\u7cfb
p1713
(dp1714
sg308
(dp1715
sV\u6c34\u5229\u7cfb
p1716
(dp1717
sV\u6cd5\u5b66\u9662
p1718
(dp1719
sV\u4eba\u6587\u5b66\u9662
p1720
(dp1721
sg1000
(dp1722
sV\u9ad8\u7814\u9662
p1723
(dp1724
sg318
(dp1725
sg1371
(dp1726
sV\u5fae\u7eb3\u7535\u5b50\u7cfb
p1727
(dp1728
sV\u73af\u5883\u5b66\u9662
p1729
(dp1730
sV\u6c7d\u8f66\u7cfb
p1731
(dp1732
sV\u5316\u5de5\u7cfb
p1733
(dp1734
sg322
(dp1735
sV\u6838\u7814\u9662
p1736
(dp1737
sg1459
(dp1738
sV\u7f8e\u672f\u5b66\u9662
p1739
(dp1740
sV\u65b0\u95fb\u5b66\u9662
p1741
(dp1742
sV\u533b\u5b66\u9662
p1743
(dp1744
sg568
(dp1745
sV\u571f\u6728\u7cfb
p1746
(dp1747
sV\u6750\u6599\u5b66\u9662
p1748
(dp1749
sV\u91d1\u878d\u5b66\u9662
p1750
(dp1751
sg209
(dp1752
sV\u5916\u6587\u7cfb
p1753
(dp1754
ssg68
(dp1755
sg70
(dp1756
sg72
(dp1757
V\u81ea\u52a8\u5316\u7cfb
p1758
(dp1759
sg346
(dp1760
sV\u5de5\u4e1a\u5de5\u7a0b\u7cfb
p1761
(dp1762
sV\u793e\u79d1\u5b66\u9662
p1763
(dp1764
sV\u5316\u5b66\u7cfb
p1765
(dp1766
sV\u7535\u5b50\u7cfb
p1767
(dp1768
sV\u70ed\u80fd\u7cfb
p1769
(dp1770
sg1053
(dp1771
sg36
(dp1772
sV\u822a\u9662
p1773
(dp1774
sV\u7ecf\u7ba1\u5b66\u9662
p1775
(dp1776
sg526
(dp1777
sV\u8f6f\u4ef6\u5b66\u9662
p1778
(dp1779
sV\u6c34\u5229\u7cfb
p1780
(dp1781
sV\u6cd5\u5b66\u9662
p1782
(dp1783
sg1720
(dp1784
sV\u751f\u547d\u5b66\u9662
p1785
(dp1786
sg1366
(dp1787
sV\u4e2d\u6587\u7cfb
p1788
(dp1789
sV\u6559\u7814\u9662
p1790
(dp1791
sg653
(dp1792
sV\u5fae\u7eb3\u7535\u5b50\u7cfb
p1793
(dp1794
sV\u73af\u5883\u5b66\u9662
p1795
(dp1796
sV\u6c7d\u8f66\u7cfb
p1797
(dp1798
sV\u5916\u6587\u7cfb
p1799
(dp1800
sV\u5316\u5de5\u7cfb
p1801
(dp1802
sV\u7269\u7406\u7cfb
p1803
(dp1804
sV\u673a\u68b0\u5b66\u9662
p1805
(dp1806
sV\u6838\u7814\u9662
p1807
(dp1808
sg643
(dp1809
sV\u7f8e\u672f\u5b66\u9662
p1810
(dp1811
sV\u836f\u5b66\u9662
p1812
(dp1813
sV\u533b\u5b66\u9662
p1814
(dp1815
sV\u5de5\u7269\u7cfb
p1816
(dp1817
sg60
(dp1818
sV\u516c\u7ba1\u5b66\u9662
p1819
(dp1820
sV\u6750\u6599\u5b66\u9662
p1821
(dp1822
sV\u91d1\u878d\u5b66\u9662
p1823
(dp1824
sg222
(dp1825
sV\u5efa\u7b51\u5b66\u9662
p1826
(dp1827
sV\u5efa\u7ba1\u7cfb
p1828
(dp1829
ssg74
(dp1830
V\u81ea\u52a8\u5316\u7cfb
p1831
(dp1832
sV\u7cbe\u4eea\u7cfb
p1833
(dp1834
sV\u751f\u533b\u7cfb
p1835
(dp1836
sV\u5de5\u4e1a\u5de5\u7a0b\u7cfb
p1837
(dp1838
sg577
(dp1839
sV\u5316\u5b66\u7cfb
p1840
(dp1841
sV\u7535\u5b50\u7cfb
p1842
(dp1843
sV\u70ed\u80fd\u7cfb
p1844
(dp1845
sV\u7535\u673a\u7cfb
p1846
(dp1847
sg36
(dp1848
sV\u822a\u9662
p1849
(dp1850
sV\u5fae\u7eb3\u7535\u5b50\u7cfb
p1851
(dp1852
sg526
(dp1853
sV\u8f6f\u4ef6\u5b66\u9662
p1854
(dp1855
sV\u571f\u6728\u7cfb
p1856
(dp1857
sg48
(dp1858
sV\u65b0\u96c5\u4e66\u9662
p1859
(dp1860
sV\u4eba\u6587\u5b66\u9662
p1861
(dp1862
sV\u751f\u547d\u5b66\u9662
p1863
(dp1864
sV\u4e2d\u6587\u7cfb
p1865
(dp1866
sV\u9a6c\u514b\u601d\u4e3b\u4e49\u5b66\u9662
p1867
(dp1868
sg1217
(dp1869
sV\u516c\u7ba1\u5b66\u9662
p1870
(dp1871
sV\u7ecf\u7ba1\u5b66\u9662
p1872
(dp1873
sV\u73af\u5883\u5b66\u9662
p1874
(dp1875
sV\u6c7d\u8f66\u7cfb
p1876
(dp1877
sg1017
(dp1878
sg322
(dp1879
sg639
(dp1880
sV\u5efa\u7ba1\u7cfb
p1881
(dp1882
sg1233
(dp1883
sg724
(dp1884
sV\u5916\u6587\u7cfb
p1885
(dp1886
sV\u836f\u5b66\u9662
p1887
(dp1888
sg198
(dp1889
sg60
(dp1890
sV\u5de5\u7269\u7cfb
p1891
(dp1892
sV\u6c34\u5229\u7cfb
p1893
(dp1894
sV\u6750\u6599\u5b66\u9662
p1895
(dp1896
sg1750
(dp1897
sV\u793e\u79d1\u5b66\u9662
p1898
(dp1899
sV\u5efa\u7b51\u5b66\u9662
p1900
(dp1901
sg398
(dp1902
ssg76
(dp1903
V\u81ea\u52a8\u5316\u7cfb
p1904
(dp1905
sV\u7cbe\u4eea\u7cfb
p1906
(dp1907
sg143
(dp1908
sV\u793e\u79d1\u5b66\u9662
p1909
(dp1910
sV\u5316\u5b66\u7cfb
p1911
(dp1912
sV\u7535\u5b50\u7cfb
p1913
(dp1914
sV\u70ed\u80fd\u7cfb
p1915
(dp1916
sg763
(dp1917
sg36
(dp1918
sV\u822a\u9662
p1919
(dp1920
sg1711
(dp1921
sV\u673a\u68b0\u7cfb
p1922
(dp1923
sV\u8f6f\u4ef6\u5b66\u9662
p1924
(dp1925
sV\u6c34\u5229\u7cfb
p1926
(dp1927
sV\u6cd5\u5b66\u9662
p1928
(dp1929
sV\u65b0\u96c5\u4e66\u9662
p1930
(dp1931
sV\u4eba\u6587\u5b66\u9662
p1932
(dp1933
sV\u751f\u547d\u5b66\u9662
p1934
(dp1935
sg540
(dp1936
sg1248
(dp1937
sV\u5fae\u7eb3\u7535\u5b50\u7cfb
p1938
(dp1939
sg1080
(dp1940
sg1299
(dp1941
sg636
(dp1942
sV\u7269\u7406\u7cfb
p1943
(dp1944
sV\u673a\u68b0\u5b66\u9662
p1945
(dp1946
sg398
(dp1947
sV\u6570\u5b66\u7cfb
p1948
(dp1949
sV\u7f8e\u672f\u5b66\u9662
p1950
(dp1951
sV\u5916\u6587\u7cfb
p1952
(dp1953
sV\u533b\u5b66\u9662
p1954
(dp1955
sg60
(dp1956
sg1470
(dp1957
sV\u571f\u6728\u7cfb
p1958
(dp1959
sV\u6750\u6599\u5b66\u9662
p1960
(dp1961
sg575
(dp1962
sg728
(dp1963
sV\u5efa\u7b51\u5b66\u9662
p1964
(dp1965
ssg78
(dp1966
g60
(dp1967
sg346
(dp1968
sV\u751f\u533b\u7cfb
p1969
(dp1970
sV\u5de5\u4e1a\u5de5\u7a0b\u7cfb
p1971
(dp1972
sV\u793e\u79d1\u5b66\u9662
p1973
(dp1974
sV\u5316\u5b66\u7cfb
p1975
(dp1976
sV\u7535\u5b50\u7cfb
p1977
(dp1978
sV\u70ed\u80fd\u7cfb
p1979
(dp1980
sV\u7535\u673a\u7cfb
p1981
(dp1982
sg36
(dp1983
sV\u822a\u9662
p1984
(dp1985
sV\u7ecf\u7ba1\u5b66\u9662
p1986
(dp1987
sV\u673a\u68b0\u7cfb
p1988
(dp1989
sV\u8f6f\u4ef6\u5b66\u9662
p1990
(dp1991
sV\u6c34\u5229\u7cfb
p1992
(dp1993
sV\u6cd5\u5b66\u9662
p1994
(dp1995
sV\u65b0\u96c5\u4e66\u9662
p1996
(dp1997
sV\u81ea\u52a8\u5316\u7cfb
p1998
(dp1999
sV\u4eba\u6587\u5b66\u9662
p2000
(dp2001
sg619
(dp2002
sV\u4e2d\u6587\u7cfb
p2003
(dp2004
sg381
(dp2005
sV\u516c\u7ba1\u5b66\u9662
p2006
(dp2007
sV\u5fae\u7eb3\u7535\u5b50\u7cfb
p2008
(dp2009
sV\u73af\u5883\u5b66\u9662
p2010
(dp2011
sV\u6c7d\u8f66\u7cfb
p2012
(dp2013
sg1226
(dp2014
sV\u7269\u7406\u7cfb
p2015
(dp2016
sg324
(dp2017
sV\u5efa\u7ba1\u7cfb
p2018
(dp2019
sV\u6570\u5b66\u7cfb
p2020
(dp2021
sV\u7f8e\u672f\u5b66\u9662
p2022
(dp2023
sV\u5916\u6587\u7cfb
p2024
(dp2025
sV\u533b\u5b66\u9662
p2026
(dp2027
sV\u5de5\u7269\u7cfb
p2028
(dp2029
sg653
(dp2030
sV\u6750\u6599\u5b66\u9662
p2031
(dp2032
sg1106
(dp2033
sV\u65b0\u95fb\u5b66\u9662
p2034
(dp2035
sg1032
(dp2036
sV\u6838\u7814\u9662
p2037
(dp2038
ssg80
(dp2039
g1412
(dp2040
sV\u6c34\u5229\u7cfb
p2041
(dp2042
sV\u7cbe\u4eea\u7cfb
p2043
(dp2044
sV\u751f\u533b\u7cfb
p2045
(dp2046
sV\u5de5\u4e1a\u5de5\u7a0b\u7cfb
p2047
(dp2048
sV\u65b0\u95fb\u5b66\u9662
p2049
(dp2050
sV\u5316\u5b66\u7cfb
p2051
(dp2052
sV\u7535\u5b50\u7cfb
p2053
(dp2054
sV\u70ed\u80fd\u7cfb
p2055
(dp2056
sV\u7535\u673a\u7cfb
p2057
(dp2058
sg36
(dp2059
sV\u822a\u9662
p2060
(dp2061
sV\u7ecf\u7ba1\u5b66\u9662
p2062
(dp2063
sV\u673a\u68b0\u7cfb
p2064
(dp2065
sg1435
(dp2066
sV\u571f\u6728\u7cfb
p2067
(dp2068
sV\u6cd5\u5b66\u9662
p2069
(dp2070
sV\u65b0\u96c5\u4e66\u9662
p2071
(dp2072
sV\u4eba\u6587\u5b66\u9662
p2073
(dp2074
sg1785
(dp2075
sV\u4e2d\u6587\u7cfb
p2076
(dp2077
sg1217
(dp2078
sV\u516c\u7ba1\u5b66\u9662
p2079
(dp2080
sg257
(dp2081
sV\u73af\u5883\u5b66\u9662
p2082
(dp2083
sg548
(dp2084
sV\u5316\u5de5\u7cfb
p2085
(dp2086
sV\u7269\u7406\u7cfb
p2087
(dp2088
sV\u673a\u68b0\u5b66\u9662
p2089
(dp2090
sV\u6838\u7814\u9662
p2091
(dp2092
sV\u6570\u5b66\u7cfb
p2093
(dp2094
sg1461
(dp2095
sg623
(dp2096
sg276
(dp2097
sg201
(dp2098
sg60
(dp2099
sV\u5916\u6587\u7cfb
p2100
(dp2101
sV\u6750\u6599\u5b66\u9662
p2102
(dp2103
sV\u793e\u79d1\u5b66\u9662
p2104
(dp2105
sg1032
(dp2106
sg1328
(dp2107
ssg82
(dp2108
V\u81ea\u52a8\u5316\u7cfb
p2109
(dp2110
sg422
(dp2111
sV\u5de5\u4e1a\u5de5\u7a0b\u7cfb
p2112
(dp2113
sV\u793e\u79d1\u5b66\u9662
p2114
(dp2115
sV\u5316\u5b66\u7cfb
p2116
(dp2117
sg838
(dp2118
sg2055
(dp2119
sV\u7535\u673a\u7cfb
p2120
(dp2121
sg36
(dp2122
sV\u822a\u9662
p2123
(dp2124
sg178
(dp2125
sV\u673a\u68b0\u7cfb
p2126
(dp2127
sV\u8f6f\u4ef6\u5b66\u9662
p2128
(dp2129
sV\u6c34\u5229\u7cfb
p2130
(dp2131
sV\u6cd5\u5b66\u9662
p2132
(dp2133
sV\u4eba\u6587\u5b66\u9662
p2134
(dp2135
sV\u751f\u547d\u5b66\u9662
p2136
(dp2137
sg1290
(dp2138
sg940
(dp2139
sg318
(dp2140
sV\u571f\u6728\u7cfb
p2141
(dp2142
sV\u5fae\u7eb3\u7535\u5b50\u7cfb
p2143
(dp2144
sV\u73af\u5883\u5b66\u9662
p2145
(dp2146
sV\u5916\u6587\u7cfb
p2147
(dp2148
sV\u5316\u5de5\u7cfb
p2149
(dp2150
sg1453
(dp2151
sV\u673a\u68b0\u5b66\u9662
p2152
(dp2153
sV\u5efa\u7ba1\u7cfb
p2154
(dp2155
sV\u6570\u5b66\u7cfb
p2156
(dp2157
sV\u7f8e\u672f\u5b66\u9662
p2158
(dp2159
sg1463
(dp2160
sV\u836f\u5b66\u9662
p2161
(dp2162
sV\u533b\u5b66\u9662
p2163
(dp2164
sg1470
(dp2165
sg60
(dp2166
sV\u516c\u7ba1\u5b66\u9662
p2167
(dp2168
sg1604
(dp2169
sV\u91d1\u878d\u5b66\u9662
p2170
(dp2171
sV\u65b0\u95fb\u5b66\u9662
p2172
(dp2173
sV\u5efa\u7b51\u5b66\u9662
p2174
(dp2175
sV\u6838\u7814\u9662
p2176
(dp2177
ssg84
(dp2178
sg86
(dp2179
V\u81ea\u52a8\u5316\u7cfb
p2180
(dp2181
sV\u7cbe\u4eea\u7cfb
p2182
(dp2183
sV\u751f\u533b\u7cfb
p2184
(dp2185
sV\u5de5\u4e1a\u5de5\u7a0b\u7cfb
p2186
(dp2187
sg338
(dp2188
sg298
(dp2189
sV\u7535\u5b50\u7cfb
p2190
(dp2191
sV\u70ed\u80fd\u7cfb
p2192
(dp2193
sV\u7535\u673a\u7cfb
p2194
(dp2195
sg36
(dp2196
sV\u822a\u9662
p2197
(dp2198
sg1447
(dp2199
sV\u673a\u68b0\u7cfb
p2200
(dp2201
sV\u8f6f\u4ef6\u5b66\u9662
p2202
(dp2203
sV\u6c34\u5229\u7cfb
p2204
(dp2205
sV\u6cd5\u5b66\u9662
p2206
(dp2207
sV\u4eba\u6587\u5b66\u9662
p2208
(dp2209
sV\u751f\u547d\u5b66\u9662
p2210
(dp2211
sV\u4e2d\u6587\u7cfb
p2212
(dp2213
sV\u6559\u7814\u9662
p2214
(dp2215
sV\u7ecf\u7ba1\u5b66\u9662
p2216
(dp2217
sV\u73af\u5883\u5b66\u9662
p2218
(dp2219
sV\u6c7d\u8f66\u7cfb
p2220
(dp2221
sV\u5316\u5de5\u7cfb
p2222
(dp2223
sV\u7269\u7406\u7cfb
p2224
(dp2225
sg1945
(dp2226
sV\u6838\u7814\u9662
p2227
(dp2228
sV\u6570\u5b66\u7cfb
p2229
(dp2230
sV\u7f8e\u672f\u5b66\u9662
p2231
(dp2232
sg2100
(dp2233
sV\u836f\u5b66\u9662
p2234
(dp2235
sg330
(dp2236
sV\u5de5\u7269\u7cfb
p2237
(dp2238
sV\u571f\u6728\u7cfb
p2239
(dp2240
sV\u6750\u6599\u5b66\u9662
p2241
(dp2242
sV\u793e\u79d1\u5b66\u9662
p2243
(dp2244
sV\u5efa\u7b51\u5b66\u9662
p2245
(dp2246
sV\u5efa\u7ba1\u7cfb
p2247
(dp2248
ssg88
(dp2249
g1831
(dp2250
sg141
(dp2251
sV\u751f\u533b\u7cfb
p2252
(dp2253
sV\u5de5\u4e1a\u5de5\u7a0b\u7cfb
p2254
(dp2255
sV\u65b0\u95fb\u5b66\u9662
p2256
(dp2257
sV\u5316\u5b66\u7cfb
p2258
(dp2259
sV\u7535\u5b50\u7cfb
p2260
(dp2261
sV\u70ed\u80fd\u7cfb
p2262
(dp2263
sV\u7535\u673a\u7cfb
p2264
(dp2265
sg36
(dp2266
sg1199
(dp2267
sV\u822a\u9662
p2268
(dp2269
sV\u5fae\u7eb3\u7535\u5b50\u7cfb
p2270
(dp2271
sV\u673a\u68b0\u7cfb
p2272
(dp2273
sV\u8f6f\u4ef6\u5b66\u9662
p2274
(dp2275
sV\u6c34\u5229\u7cfb
p2276
(dp2277
sV\u6cd5\u5b66\u9662
p2278
(dp2279
sV\u65b0\u96c5\u4e66\u9662
p2280
(dp2281
sV\u4eba\u6587\u5b66\u9662
p2282
(dp2283
sV\u751f\u547d\u5b66\u9662
p2284
(dp2285
sg1004
(dp2286
sV\u6559\u7814\u9662
p2287
(dp2288
sV\u516c\u7ba1\u5b66\u9662
p2289
(dp2290
sV\u7ecf\u7ba1\u5b66\u9662
p2291
(dp2292
sg1874
(dp2293
sV\u6c7d\u8f66\u7cfb
p2294
(dp2295
sV\u5316\u5de5\u7cfb
p2296
(dp2297
sg60
(dp2298
sV\u673a\u68b0\u5b66\u9662
p2299
(dp2300
sV\u6838\u7814\u9662
p2301
(dp2302
sV\u6570\u5b66\u7cfb
p2303
(dp2304
sV\u7269\u7406\u7cfb
p2305
(dp2306
sg479
(dp2307
sV\u533b\u5b66\u9662
p2308
(dp2309
sV\u5de5\u7269\u7cfb
p2310
(dp2311
sV\u571f\u6728\u7cfb
p2312
(dp2313
sV\u5efa\u7b51\u5b66\u9662
p2314
(dp2315
sV\u6750\u6599\u5b66\u9662
p2316
(dp2317
sV\u91d1\u878d\u5b66\u9662
p2318
(dp2319
sV\u793e\u79d1\u5b66\u9662
p2320
(dp2321
sg468
(dp2322
ssg90
(dp2323
V\u81ea\u52a8\u5316\u7cfb
p2324
(dp2325
sg346
(dp2326
sg424
(dp2327
sV\u7535\u673a\u7cfb
p2328
(dp2329
sg143
(dp2330
sg1763
(dp2331
sV\u5316\u5b66\u7cfb
p2332
(dp2333
sV\u7535\u5b50\u7cfb
p2334
(dp2335
sV\u70ed\u80fd\u7cfb
p2336
(dp2337
sV\u5916\u6587\u7cfb
p2338
(dp2339
sg36
(dp2340
sV\u822a\u9662
p2341
(dp2342
sV\u7ecf\u7ba1\u5b66\u9662
p2343
(dp2344
sV\u673a\u68b0\u7cfb
p2345
(dp2346
sV\u8f6f\u4ef6\u5b66\u9662
p2347
(dp2348
sV\u6c34\u5229\u7cfb
p2349
(dp2350
sV\u6cd5\u5b66\u9662
p2351
(dp2352
sV\u65b0\u96c5\u4e66\u9662
p2353
(dp2354
sV\u4eba\u6587\u5b66\u9662
p2355
(dp2356
sV\u751f\u547d\u5b66\u9662
p2357
(dp2358
sg1004
(dp2359
sg253
(dp2360
sV\u516c\u7ba1\u5b66\u9662
p2361
(dp2362
sV\u73af\u5883\u5b66\u9662
p2363
(dp2364
sV\u6c7d\u8f66\u7cfb
p2365
(dp2366
sV\u5316\u5de5\u7cfb
p2367
(dp2368
sV\u7269\u7406\u7cfb
p2369
(dp2370
sV\u673a\u68b0\u5b66\u9662
p2371
(dp2372
sg1090
(dp2373
sg802
(dp2374
sV\u7f8e\u672f\u5b66\u9662
p2375
(dp2376
sV\u9a6c\u514b\u601d\u4e3b\u4e49\u5b66\u9662
p2377
(dp2378
sg740
(dp2379
sV\u533b\u5b66\u9662
p2380
(dp2381
sg60
(dp2382
sV\u5de5\u7269\u7cfb
p2383
(dp2384
sg653
(dp2385
sV\u6750\u6599\u5b66\u9662
p2386
(dp2387
sg1750
(dp2388
sg577
(dp2389
sV\u5efa\u7b51\u5b66\u9662
p2390
(dp2391
ssg92
(dp2392
V\u5168\u7403\u521b\u65b0\u5b66\u9662
p2393
(dp2394
sg1412
(dp2395
sV\u7cbe\u4eea\u7cfb
p2396
(dp2397
sg2184
(dp2398
sV\u5de5\u4e1a\u5de5\u7a0b\u7cfb
p2399
(dp2400
sV\u65b0\u95fb\u5b66\u9662
p2401
(dp2402
sV\u5316\u5b66\u7cfb
p2403
(dp2404
sV\u7535\u5b50\u7cfb
p2405
(dp2406
sV\u70ed\u80fd\u7cfb
p2407
(dp2408
sg153
(dp2409
sg36
(dp2410
sV\u822a\u9662
p2411
(dp2412
sV\u7ecf\u7ba1\u5b66\u9662
p2413
(dp2414
sV\u673a\u68b0\u7cfb
p2415
(dp2416
sV\u8f6f\u4ef6\u5b66\u9662
p2417
(dp2418
sV\u571f\u6728\u7cfb
p2419
(dp2420
sV\u6cd5\u5b66\u9662
p2421
(dp2422
sV\u4eba\u6587\u5b66\u9662
p2423
(dp2424
sg2357
(dp2425
sV\u9ad8\u7814\u9662
p2426
(dp2427
sg1004
(dp2428
sg253
(dp2429
sV\u516c\u7ba1\u5b66\u9662
p2430
(dp2431
sV\u5fae\u7eb3\u7535\u5b50\u7cfb
p2432
(dp2433
sV\u73af\u5883\u5b66\u9662
p2434
(dp2435
sg548
(dp2436
sV\u5316\u5de5\u7cfb
p2437
(dp2438
sV\u7269\u7406\u7cfb
p2439
(dp2440
sg639
(dp2441
sg398
(dp2442
sV\u6570\u5b66\u7cfb
p2443
(dp2444
sg479
(dp2445
sg391
(dp2446
sg276
(dp2447
sg60
(dp2448
sV\u5de5\u7269\u7cfb
p2449
(dp2450
sg2349
(dp2451
sV\u6750\u6599\u5b66\u9662
p2452
(dp2453
sV\u91d1\u878d\u5b66\u9662
p2454
(dp2455
sV\u793e\u79d1\u5b66\u9662
p2456
(dp2457
sV\u5efa\u7b51\u5b66\u9662
p2458
(dp2459
sg881
(dp2460
ssg94
(dp2461
V\u81ea\u52a8\u5316\u7cfb
p2462
(dp2463
sV\u7cbe\u4eea\u7cfb
p2464
(dp2465
sg143
(dp2466
sg577
(dp2467
sg354
(dp2468
sV\u7535\u5b50\u7cfb
p2469
(dp2470
sV\u70ed\u80fd\u7cfb
p2471
(dp2472
sV\u7535\u673a\u7cfb
p2473
(dp2474
sg36
(dp2475
sV\u822a\u9662
p2476
(dp2477
sV\u7ecf\u7ba1\u5b66\u9662
p2478
(dp2479
sg526
(dp2480
sg368
(dp2481
sV\u571f\u6728\u7cfb
p2482
(dp2483
sV\u6cd5\u5b66\u9662
p2484
(dp2485
sV\u7f8e\u672f\u5b66\u9662
p2486
(dp2487
sV\u4eba\u6587\u5b66\u9662
p2488
(dp2489
sV\u751f\u547d\u5b66\u9662
p2490
(dp2491
sV\u6559\u7814\u9662
p2492
(dp2493
sg1294
(dp2494
sg787
(dp2495
sV\u73af\u5883\u5b66\u9662
p2496
(dp2497
sg1661
(dp2498
sV\u5316\u5de5\u7cfb
p2499
(dp2500
sV\u7269\u7406\u7cfb
p2501
(dp2502
sV\u673a\u68b0\u5b66\u9662
p2503
(dp2504
sV\u6838\u7814\u9662
p2505
(dp2506
sV\u6570\u5b66\u7cfb
p2507
(dp2508
sV\u6c34\u5229\u7cfb
p2509
(dp2510
sg562
(dp2511
sV\u836f\u5b66\u9662
p2512
(dp2513
sV\u533b\u5b66\u9662
p2514
(dp2515
sV\u5de5\u7269\u7cfb
p2516
(dp2517
sg60
(dp2518
sV\u5916\u6587\u7cfb
p2519
(dp2520
sV\u6750\u6599\u5b66\u9662
p2521
(dp2522
sV\u91d1\u878d\u5b66\u9662
p2523
(dp2524
sV\u793e\u79d1\u5b66\u9662
p2525
(dp2526
sV\u5efa\u7b51\u5b66\u9662
p2527
(dp2528
ssg96
(dp2529
g564
(dp2530
sg239
(dp2531
sV\u533b\u5b66\u9662
p2532
(dp2533
sV\u751f\u533b\u7cfb
p2534
(dp2535
sV\u65b0\u95fb\u5b66\u9662
p2536
(dp2537
sV\u5316\u5b66\u7cfb
p2538
(dp2539
sV\u751f\u547d\u5b66\u9662
p2540
(dp2541
ssg98
(dp2542
sg100
(dp2543
g1831
(dp2544
sg1185
(dp2545
sV\u751f\u533b\u7cfb
p2546
(dp2547
sV\u5de5\u4e1a\u5de5\u7a0b\u7cfb
p2548
(dp2549
sg511
(dp2550
sg1556
(dp2551
sg1193
(dp2552
sg358
(dp2553
sg153
(dp2554
sg36
(dp2555
sV\u822a\u9662
p2556
(dp2557
sV\u7ecf\u7ba1\u5b66\u9662
p2558
(dp2559
sV\u673a\u68b0\u7cfb
p2560
(dp2561
sV\u8f6f\u4ef6\u5b66\u9662
p2562
(dp2563
sV\u6c34\u5229\u7cfb
p2564
(dp2565
sV\u6cd5\u5b66\u9662
p2566
(dp2567
sV\u4eba\u6587\u5b66\u9662
p2568
(dp2569
sV\u751f\u547d\u5b66\u9662
p2570
(dp2571
sV\u9ad8\u7814\u9662
p2572
(dp2573
sg1004
(dp2574
sg540
(dp2575
sV\u516c\u7ba1\u5b66\u9662
p2576
(dp2577
sV\u5fae\u7eb3\u7535\u5b50\u7cfb
p2578
(dp2579
sg2218
(dp2580
sV\u6c7d\u8f66\u7cfb
p2581
(dp2582
sV\u5316\u5de5\u7cfb
p2583
(dp2584
sV\u7269\u7406\u7cfb
p2585
(dp2586
sg398
(dp2587
sg1387
(dp2588
sV\u7f8e\u672f\u5b66\u9662
p2589
(dp2590
sV\u836f\u5b66\u9662
p2591
(dp2592
sV\u533b\u5b66\u9662
p2593
(dp2594
sg60
(dp2595
sV\u5de5\u7269\u7cfb
p2596
(dp2597
sV\u571f\u6728\u7cfb
p2598
(dp2599
sg1250
(dp2600
sV\u65b0\u95fb\u5b66\u9662
p2601
(dp2602
sV\u5efa\u7b51\u5b66\u9662
p2603
(dp2604
ssg102
(dp2605
sg104
(dp2606
g1412
(dp2607
sg751
(dp2608
sg507
(dp2609
sV\u5de5\u4e1a\u5de5\u7a0b\u7cfb
p2610
(dp2611
sV\u793e\u79d1\u5b66\u9662
p2612
(dp2613
sV\u5316\u5b66\u7cfb
p2614
(dp2615
sV\u7535\u5b50\u7cfb
p2616
(dp2617
sg2055
(dp2618
sV\u7535\u673a\u7cfb
p2619
(dp2620
sg36
(dp2621
sV\u822a\u9662
p2622
(dp2623
sg1711
(dp2624
sV\u673a\u68b0\u7cfb
p2625
(dp2626
sg2417
(dp2627
sg852
(dp2628
sg2421
(dp2629
sg1363
(dp2630
sV\u751f\u547d\u5b66\u9662
p2631
(dp2632
sV\u4e2d\u6587\u7cfb
p2633
(dp2634
sV\u9a6c\u514b\u601d\u4e3b\u4e49\u5b66\u9662
p2635
(dp2636
sg174
(dp2637
sg2167
(dp2638
sV\u5fae\u7eb3\u7535\u5b50\u7cfb
p2639
(dp2640
sV\u73af\u5883\u5b66\u9662
p2641
(dp2642
sV\u6c7d\u8f66\u7cfb
p2643
(dp2644
sg2367
(dp2645
sg60
(dp2646
sV\u673a\u68b0\u5b66\u9662
p2647
(dp2648
sg2091
(dp2649
sV\u6570\u5b66\u7cfb
p2650
(dp2651
sV\u7269\u7406\u7cfb
p2652
(dp2653
sg1461
(dp2654
sV\u5916\u6587\u7cfb
p2655
(dp2656
sg2234
(dp2657
sg276
(dp2658
sg1891
(dp2659
sV\u6c34\u5229\u7cfb
p2660
(dp2661
sV\u6750\u6599\u5b66\u9662
p2662
(dp2663
sg895
(dp2664
sV\u65b0\u95fb\u5b66\u9662
p2665
(dp2666
sV\u5efa\u7b51\u5b66\u9662
p2667
(dp2668
sV\u5efa\u7ba1\u7cfb
p2669
(dp2670
ssg106
(dp2671
g1412
(dp2672
sV\u7cbe\u4eea\u7cfb
p2673
(dp2674
sV\u751f\u533b\u7cfb
p2675
(dp2676
sV\u5de5\u4e1a\u5de5\u7a0b\u7cfb
p2677
(dp2678
sV\u793e\u79d1\u5b66\u9662
p2679
(dp2680
sV\u5316\u5b66\u7cfb
p2681
(dp2682
sg838
(dp2683
sg1915
(dp2684
sg763
(dp2685
sg36
(dp2686
sV\u822a\u9662
p2687
(dp2688
sV\u7ecf\u7ba1\u5b66\u9662
p2689
(dp2690
sV\u673a\u68b0\u7cfb
p2691
(dp2692
sV\u8f6f\u4ef6\u5b66\u9662
p2693
(dp2694
sV\u571f\u6728\u7cfb
p2695
(dp2696
sg2421
(dp2697
sV\u4eba\u6587\u5b66\u9662
p2698
(dp2699
sg377
(dp2700
sV\u4e2d\u6587\u7cfb
p2701
(dp2702
sg623
(dp2703
sV\u6e05\u534e-\u4f2f\u514b\u5229\u6df1\u5733\u5b66\u9662
p2704
(dp2705
sg1217
(dp2706
sg1294
(dp2707
sg1938
(dp2708
sV\u73af\u5883\u5b66\u9662
p2709
(dp2710
sg1450
(dp2711
sg1153
(dp2712
sg60
(dp2713
sV\u673a\u68b0\u5b66\u9662
p2714
(dp2715
sV\u6838\u7814\u9662
p2716
(dp2717
sV\u6570\u5b66\u7cfb
p2718
(dp2719
sV\u7269\u7406\u7cfb
p2720
(dp2721
sV\u7f8e\u672f\u5b66\u9662
p2722
(dp2723
sg1753
(dp2724
sV\u836f\u5b66\u9662
p2725
(dp2726
sg276
(dp2727
sV\u5de5\u7269\u7cfb
p2728
(dp2729
sV\u6c34\u5229\u7cfb
p2730
(dp2731
sV\u6750\u6599\u5b66\u9662
p2732
(dp2733
sg895
(dp2734
sg207
(dp2735
sg209
(dp2736
sV\u5fae\u7535\u5b50\u6240
p2737
(dp2738
sV\u5efa\u7ba1\u7cfb
p2739
(dp2740
ssg108
(dp2741
V\u5fae\u7eb3\u7535\u5b50\u7cfb
p2742
(dp2743
sg945
(dp2744
sg36
(dp2745
sV\u81ea\u52a8\u5316\u7cfb
p2746
(dp2747
sg1958
(dp2748
sg2278
(dp2749
sV\u516c\u7ba1\u5b66\u9662
p2750
(dp2751
sg108
(dp2752
sV\u793e\u79d1\u5b66\u9662
p2753
(dp2754
sg1423
(dp2755
sV\u5efa\u7b51\u5b66\u9662
p2756
(dp2757
sV\u5730\u5b66\u7cfb
p2758
(dp2759
sV\u7f8e\u672f\u5b66\u9662
p2760
(dp2761
ssg110
(dp2762
g1831
(dp2763
sg751
(dp2764
sV\u751f\u533b\u7cfb
p2765
(dp2766
sg143
(dp2767
sV\u793e\u79d1\u5b66\u9662
p2768
(dp2769
sV\u5316\u5b66\u7cfb
p2770
(dp2771
sV\u7535\u5b50\u7cfb
p2772
(dp2773
sV\u70ed\u80fd\u7cfb
p2774
(dp2775
sg2619
(dp2776
sg36
(dp2777
sV\u822a\u9662
p2778
(dp2779
sg1711
(dp2780
sV\u673a\u68b0\u7cfb
p2781
(dp2782
sV\u8f6f\u4ef6\u5b66\u9662
p2783
(dp2784
sg1573
(dp2785
sV\u6cd5\u5b66\u9662
p2786
(dp2787
sV\u65b0\u96c5\u4e66\u9662
p2788
(dp2789
sV\u7f8e\u672f\u5b66\u9662
p2790
(dp2791
sg1363
(dp2792
sV\u751f\u547d\u5b66\u9662
p2793
(dp2794
sV\u6559\u7814\u9662
p2795
(dp2796
sV\u516c\u7ba1\u5b66\u9662
p2797
(dp2798
sV\u5fae\u7eb3\u7535\u5b50\u7cfb
p2799
(dp2800
sV\u73af\u5883\u5b66\u9662
p2801
(dp2802
sg548
(dp2803
sV\u5efa\u7b51\u5b66\u9662
p2804
(dp2805
sg636
(dp2806
sV\u7269\u7406\u7cfb
p2807
(dp2808
sV\u673a\u68b0\u5b66\u9662
p2809
(dp2810
sV\u6838\u7814\u9662
p2811
(dp2812
sV\u6570\u5b66\u7cfb
p2813
(dp2814
sg1597
(dp2815
sV\u9a6c\u514b\u601d\u4e3b\u4e49\u5b66\u9662
p2816
(dp2817
sV\u533b\u5b66\u9662
p2818
(dp2819
sV\u5de5\u7269\u7cfb
p2820
(dp2821
sg60
(dp2822
sV\u6750\u6599\u5b66\u9662
p2823
(dp2824
sg895
(dp2825
sg2665
(dp2826
sV\u5916\u6587\u7cfb
p2827
(dp2828
sV\u5efa\u7ba1\u7cfb
p2829
(dp2830
ssg112
(dp2831
g945
(dp2832
sV\u6c34\u5229\u7cfb
p2833
(dp2834
sV\u6cd5\u5b66\u9662
p2835
(dp2836
sg1958
(dp2837
sV\u4eba\u6587\u5b66\u9662
p2838
(dp2839
sg895
(dp2840
sg511
(dp2841
sV\u751f\u547d\u5b66\u9662
p2842
(dp2843
sV\u65b0\u95fb\u5b66\u9662
p2844
(dp2845
ssg114
(dp2846
V\u81ea\u52a8\u5316\u7cfb
p2847
(dp2848
sg346
(dp2849
sV\u751f\u533b\u7cfb
p2850
(dp2851
sg143
(dp2852
sg1118
(dp2853
sV\u5316\u5b66\u7cfb
p2854
(dp2855
sg838
(dp2856
sg517
(dp2857
sV\u7535\u673a\u7cfb
p2858
(dp2859
sg36
(dp2860
sg156
(dp2861
sg1639
(dp2862
sV\u673a\u68b0\u7cfb
p2863
(dp2864
sg1435
(dp2865
sg1992
(dp2866
sV\u6cd5\u5b66\u9662
p2867
(dp2868
sg1720
(dp2869
sg377
(dp2870
sg1290
(dp2871
sg1004
(dp2872
sg1217
(dp2873
sV\u571f\u6728\u7cfb
p2874
(dp2875
sV\u5fae\u7eb3\u7535\u5b50\u7cfb
p2876
(dp2877
sg546
(dp2878
sV\u6c7d\u8f66\u7cfb
p2879
(dp2880
sV\u5916\u6587\u7cfb
p2881
(dp2882
sg1301
(dp2883
sg2585
(dp2884
sV\u673a\u68b0\u5b66\u9662
p2885
(dp2886
sg2739
(dp2887
sV\u6570\u5b66\u7cfb
p2888
(dp2889
sV\u7f8e\u672f\u5b66\u9662
p2890
(dp2891
sg405
(dp2892
sg1318
(dp2893
sg60
(dp2894
sV\u516c\u7ba1\u5b66\u9662
p2895
(dp2896
sg893
(dp2897
sg2454
(dp2898
sV\u793e\u79d1\u5b66\u9662
p2899
(dp2900
sV\u5efa\u7b51\u5b66\u9662
p2901
(dp2902
sV\u6838\u7814\u9662
p2903
(dp2904
ssg116
(dp2905
g1831
(dp2906
sV\u6c34\u5229\u7cfb
p2907
(dp2908
sg346
(dp2909
sg143
(dp2910
sV\u793e\u79d1\u5b66\u9662
p2911
(dp2912
sV\u5316\u5b66\u7cfb
p2913
(dp2914
sV\u7535\u5b50\u7cfb
p2915
(dp2916
sg433
(dp2917
sV\u7535\u673a\u7cfb
p2918
(dp2919
sg36
(dp2920
sV\u822a\u9662
p2921
(dp2922
sV\u7ecf\u7ba1\u5b66\u9662
p2923
(dp2924
sV\u673a\u68b0\u7cfb
p2925
(dp2926
sg850
(dp2927
sV\u571f\u6728\u7cfb
p2928
(dp2929
sV\u6cd5\u5b66\u9662
p2930
(dp2931
sg452
(dp2932
sg1363
(dp2933
sV\u751f\u547d\u5b66\u9662
p2934
(dp2935
sg703
(dp2936
sV\u6559\u7814\u9662
p2937
(dp2938
sV\u516c\u7ba1\u5b66\u9662
p2939
(dp2940
sV\u5fae\u7eb3\u7535\u5b50\u7cfb
p2941
(dp2942
sg1659
(dp2943
sV\u6c7d\u8f66\u7cfb
p2944
(dp2945
sV\u5916\u6587\u7cfb
p2946
(dp2947
sV\u5316\u5de5\u7cfb
p2948
(dp2949
sg2585
(dp2950
sV\u673a\u68b0\u5b66\u9662
p2951
(dp2952
sg398
(dp2953
sg1672
(dp2954
sg2589
(dp2955
sg623
(dp2956
sV\u533b\u5b66\u9662
p2957
(dp2958
sg1318
(dp2959
sg60
(dp2960
sV\u6750\u6599\u5b66\u9662
p2961
(dp2962
sg2454
(dp2963
sg2844
(dp2964
sg2603
(dp2965
ssg118
(dp2966
V\u6750\u6599\u5b66\u9662
p2967
(dp2968
sg2737
(dp2969
ssg120
(dp2970
V\u81ea\u52a8\u5316\u7cfb
p2971
(dp2972
sV\u5de5\u4e1a\u5de5\u7a0b\u7cfb
p2973
(dp2974
sg511
(dp2975
sV\u5316\u5b66\u7cfb
p2976
(dp2977
sV\u7535\u5b50\u7cfb
p2978
(dp2979
sV\u70ed\u80fd\u7cfb
p2980
(dp2981
sg1634
(dp2982
sg36
(dp2983
sV\u822a\u9662
p2984
(dp2985
sV\u7ecf\u7ba1\u5b66\u9662
p2986
(dp2987
sV\u673a\u68b0\u7cfb
p2988
(dp2989
sV\u8f6f\u4ef6\u5b66\u9662
p2990
(dp2991
sV\u571f\u6728\u7cfb
p2992
(dp2993
sV\u6cd5\u5b66\u9662
p2994
(dp2995
sV\u4eba\u6587\u5b66\u9662
p2996
(dp2997
sV\u751f\u547d\u5b66\u9662
p2998
(dp2999
sg1004
(dp3000
sg540
(dp3001
sV\u5fae\u7eb3\u7535\u5b50\u7cfb
p3002
(dp3003
sV\u73af\u5883\u5b66\u9662
p3004
(dp3005
sV\u6c7d\u8f66\u7cfb
p3006
(dp3007
sV\u5316\u5de5\u7cfb
p3008
(dp3009
sV\u7269\u7406\u7cfb
p3010
(dp3011
sg639
(dp3012
sV\u5efa\u7ba1\u7cfb
p3013
(dp3014
sg2229
(dp3015
sV\u7f8e\u672f\u5b66\u9662
p3016
(dp3017
sg391
(dp3018
sV\u533b\u5b66\u9662
p3019
(dp3020
sV\u5de5\u7269\u7cfb
p3021
(dp3022
sg1026
(dp3023
sV\u6750\u6599\u5b66\u9662
p3024
(dp3025
sg575
(dp3026
sg2844
(dp3027
sV\u5efa\u7b51\u5b66\u9662
p3028
(dp3029
sg556
(dp3030
sssS'_succ'
p3031
(dp3032
g12
(dp3033
g128
g129
sg2231
g2394
sV\u6c34\u5229\u7cfb
p3034
g1182
ssg14
(dp3035
g139
g140
sg216
g215
sV\u5de5\u4e1a\u5de5\u7a0b\u7cfb
p3036
g345
sV\u793e\u79d1\u5b66\u9662
p3037
g421
sV\u5316\u5b66\u7cfb
p3038
g502
sV\u7535\u5b50\u7cfb
p3039
g585
sV\u70ed\u80fd\u7cfb
p3040
g669
sV\u7535\u673a\u7cfb
p3041
g748
sg36
g831
sV\u822a\u9662
p3042
g904
sV\u7ecf\u7ba1\u5b66\u9662
p3043
g1759
sV\u673a\u68b0\u7cfb
p3044
g1038
sg446
g1114
sg2067
g2672
sV\u6cd5\u5b66\u9662
p3045
g1259
sV\u4eba\u6587\u5b66\u9662
p3046
g1333
sg1214
g1413
sV\u4e2d\u6587\u7cfb
p3047
g1498
sV\u9a6c\u514b\u601d\u4e3b\u4e49\u5b66\u9662
p3048
g2463
sV\u6559\u7814\u9662
p3049
g1620
sV\u516c\u7ba1\u5b66\u9662
p3050
g1696
sg990
g977
sV\u73af\u5883\u5b66\u9662
p3051
g1832
sV\u6c7d\u8f66\u7cfb
p3052
g1905
sg1153
g2040
sV\u7269\u7406\u7cfb
p3053
g2110
sV\u673a\u68b0\u5b66\u9662
p3054
g2181
sg1594
g2250
sg883
g2325
sg963
g2395
sg2024
g1999
sg276
g2544
sg60
g1548
sg201
g2607
sg1209
g1184
sg108
g2747
sV\u6750\u6599\u5b66\u9662
p3055
g2763
sV\u65b0\u95fb\u5b66\u9662
p3056
g2848
sV\u5efa\u7b51\u5b66\u9662
p3057
g2906
sg881
g2972
ssg16
(dp3058
V\u81ea\u52a8\u5316\u7cfb
p3059
g142
sg216
g217
sV\u751f\u533b\u7cfb
p3060
g293
sg3036
g347
sg2172
g2849
sV\u5316\u5b66\u7cfb
p3061
g506
sV\u7535\u5b50\u7cfb
p3062
g587
sg3040
g670
sg2619
g752
sg36
g832
sV\u822a\u9662
p3063
g908
sV\u7ecf\u7ba1\u5b66\u9662
p3064
g1760
sg3044
g1040
sg1132
g1115
sg2564
g1186
sV\u6cd5\u5b66\u9662
p3065
g1261
sV\u4eba\u6587\u5b66\u9662
p3066
g1334
sV\u751f\u547d\u5b66\u9662
p3067
g1414
sg782
g1500
sV\u6559\u7814\u9662
p3068
g1622
sg2167
g1698
sg846
g978
sg180
g1834
sV\u6c7d\u8f66\u7cfb
p3069
g1907
sV\u5316\u5de5\u7cfb
p3070
g2044
sg394
g2111
sg639
g2183
sV\u6838\u7814\u9662
p3071
g2251
sV\u6570\u5b66\u7cfb
p3072
g2326
sV\u7f8e\u672f\u5b66\u9662
p3073
g2397
sV\u9a6c\u514b\u601d\u4e3b\u4e49\u5b66\u9662
p3074
g2465
sg965
g2545
sg60
g1550
sV\u5de5\u7269\u7cfb
p3075
g2608
sV\u571f\u6728\u7cfb
p3076
g2674
sg209
g2909
sg2662
g2764
sV\u793e\u79d1\u5b66\u9662
p3077
g423
sV\u5916\u6587\u7cfb
p3078
g1968
ssg18
(dp3079
g216
g219
sg294
g295
sV\u5de5\u4e1a\u5de5\u7a0b\u7cfb
p3080
g349
sV\u65b0\u95fb\u5b66\u9662
p3081
g2851
sV\u5316\u5b66\u7cfb
p3082
g508
sV\u7535\u5b50\u7cfb
p3083
g589
sV\u70ed\u80fd\u7cfb
p3084
g672
sV\u822a\u9662
p3085
g909
sV\u673a\u68b0\u7cfb
p3086
g1042
sg992
g1116
sV\u571f\u6728\u7cfb
p3087
g2676
sV\u6cd5\u5b66\u9662
p3088
g1263
sg314
g1335
sV\u751f\u547d\u5b66\u9662
p3089
g1416
sV\u6559\u7814\u9662
p3090
g1624
sV\u73af\u5883\u5b66\u9662
p3091
g1836
sg2085
g2046
sV\u673a\u68b0\u5b66\u9662
p3092
g2185
sV\u6838\u7814\u9662
p3093
g2253
sV\u6570\u5b66\u7cfb
p3094
g2327
sV\u7f8e\u672f\u5b66\u9662
p3095
g2398
sV\u836f\u5b66\u9662
p3096
g2535
sV\u533b\u5b66\u9662
p3097
g2547
sV\u5de5\u7269\u7cfb
p3098
g2609
sg60
g1551
sV\u6750\u6599\u5b66\u9662
p3099
g2766
sV\u793e\u79d1\u5b66\u9662
p3100
g425
sg1799
g1970
ssg20
(dp3101
sg22
(dp3102
g128
g131
sV\u81ea\u52a8\u5316\u7cfb
p3103
g144
sg885
g1188
sg216
g221
sg350
g351
sg511
g427
sV\u5316\u5b66\u7cfb
p3104
g510
sg3039
g591
sV\u70ed\u80fd\u7cfb
p3105
g674
sg435
g754
sg36
g833
sV\u822a\u9662
p3106
g911
sV\u7ecf\u7ba1\u5b66\u9662
p3107
g1762
sV\u673a\u68b0\u7cfb
p3108
g1044
sV\u8f6f\u4ef6\u5b66\u9662
p3109
g1117
sV\u571f\u6728\u7cfb
p3110
g2678
sV\u6cd5\u5b66\u9662
p3111
g1264
sV\u4eba\u6587\u5b66\u9662
p3112
g1337
sg456
g1418
sV\u4e2d\u6587\u7cfb
p3113
g1502
sg62
g1612
sg1217
g1626
sg1583
g1699
sg364
g979
sg180
g1838
sV\u6c7d\u8f66\u7cfb
p3114
g1908
sV\u5916\u6587\u7cfb
p3115
g1972
sV\u5316\u5de5\u7cfb
p3116
g2048
sg394
g2113
sV\u673a\u68b0\u5b66\u9662
p3117
g2187
sg881
g2974
sV\u6570\u5b66\u7cfb
p3118
g2330
sV\u7f8e\u672f\u5b66\u9662
p3119
g2400
sg3048
g2466
sV\u533b\u5b66\u9662
p3120
g2549
sV\u5de5\u7269\u7cfb
p3121
g2611
sg60
g1553
sV\u6750\u6599\u5b66\u9662
p3122
g2767
sV\u65b0\u95fb\u5b66\u9662
p3123
g2852
sV\u5efa\u7b51\u5b66\u9662
p3124
g2910
sg1736
g2255
ssg24
(dp3125
g128
g133
sg2603
g2912
sV\u7cbe\u4eea\u7cfb
p3126
g286
sg2184
g297
sg3036
g353
sV\u65b0\u95fb\u5b66\u9662
p3127
g2900
sV\u5316\u5b66\u7cfb
p3128
g512
sg596
g660
sV\u70ed\u80fd\u7cfb
p3129
g676
sg435
g815
sg36
g898
sV\u822a\u9662
p3130
g973
sV\u7ecf\u7ba1\u5b66\u9662
p3131
g1764
sg2863
g1108
sg446
g1174
sV\u6c34\u5229\u7cfb
p3132
g1190
sg1283
g1325
sg1412
g146
sg617
g1339
sV\u751f\u547d\u5b66\u9662
p3133
g1480
sg1865
g1503
sg2937
g1627
sg1371
g1701
sg257
g981
sV\u73af\u5883\u5b66\u9662
p3134
g1899
sV\u6c7d\u8f66\u7cfb
p3135
g1910
sg3116
g2105
sg60
g1607
sV\u673a\u68b0\u5b66\u9662
p3136
g2244
sg581
g2975
sV\u6570\u5b66\u7cfb
p3137
g2331
sg1086
g2115
sV\u7f8e\u672f\u5b66\u9662
p3138
g2457
sg562
g2526
sV\u533b\u5b66\u9662
p3139
g2550
sV\u5de5\u7269\u7cfb
p3140
g2613
sV\u571f\u6728\u7cfb
p3141
g2680
sg108
g2754
sg573
g2769
sg575
g2841
sg428
g429
sg3115
g1974
sV\u6838\u7814\u9662
p3142
g2321
ssg26
(dp3143
V\u81ea\u52a8\u5316\u7cfb
p3144
g148
sg216
g225
sg3060
g299
sV\u5de5\u4e1a\u5de5\u7a0b\u7cfb
p3145
g355
sg3056
g2855
sg513
g514
sV\u7535\u5b50\u7cfb
p3146
g595
sV\u70ed\u80fd\u7cfb
p3147
g678
sg519
g758
sg36
g837
sg1746
g2682
sV\u822a\u9662
p3148
g915
sV\u7ecf\u7ba1\u5b66\u9662
p3149
g1766
sg2863
g1048
sV\u8f6f\u4ef6\u5b66\u9662
p3150
g1121
sg2907
g1192
sV\u6cd5\u5b66\u9662
p3151
g1267
sV\u4eba\u6587\u5b66\u9662
p3152
g1341
sV\u751f\u547d\u5b66\u9662
p3153
g1422
sg861
g1490
sV\u4e2d\u6587\u7cfb
p3154
g1505
sg1217
g1629
sV\u516c\u7ba1\u5b66\u9662
p3155
g1703
sV\u73af\u5883\u5b66\u9662
p3156
g1841
sV\u6c7d\u8f66\u7cfb
p3157
g1912
sV\u5316\u5de5\u7cfb
p3158
g2052
sg1453
g2117
sg1945
g2189
sV\u5efa\u7ba1\u7cfb
p3159
g2977
sg3072
g2333
sV\u7f8e\u672f\u5b66\u9662
p3160
g2404
sg3048
g2468
sg564
g2539
sg965
g2551
sV\u5de5\u7269\u7cfb
p3161
g2615
sg60
g1557
sV\u5efa\u7b51\u5b66\u9662
p3162
g2914
sV\u6750\u6599\u5b66\u9662
p3163
g2771
sg3037
g431
sV\u5916\u6587\u7cfb
p3164
g1976
sV\u6838\u7814\u9662
p3165
g2259
ssg28
(dp3166
V\u81ea\u52a8\u5316\u7cfb
p3167
g150
sg216
g227
sg294
g301
sg32
g760
sg350
g357
sg428
g432
sg3128
g516
sg596
g597
sg681
g680
sV\u5916\u6587\u7cfb
p3168
g1978
sg36
g839
sV\u5730\u5b66\u7cfb
p3169
g824
sg3130
g917
sg990
g983
sV\u673a\u68b0\u7cfb
p3170
g1050
sg1132
g1122
sg2564
g1194
sg3065
g1269
sV\u4eba\u6587\u5b66\u9662
p3171
g1342
sV\u751f\u547d\u5b66\u9662
p3172
g1424
sV\u4e2d\u6587\u7cfb
p3173
g1507
sg62
g1614
sg2937
g1631
sg1371
g1704
sV\u7ecf\u7ba1\u5b66\u9662
p3174
g1768
sg1523
g1843
sg3069
g1914
sV\u5316\u5de5\u7cfb
p3175
g2054
sV\u7269\u7406\u7cfb
p3176
g2118
sg1383
g2191
sg1385
g2261
sg3072
g2335
sg3073
g2406
sg2635
g2470
sg965
g2552
sg60
g1559
sV\u5de5\u7269\u7cfb
p3177
g2617
sV\u571f\u6728\u7cfb
p3178
g2683
sg108
g2755
sV\u6750\u6599\u5b66\u9662
p3179
g2773
sg2844
g2856
sg3124
g2916
sg881
g2979
ssg30
(dp3180
g1183
g152
sg3126
g229
sg3036
g359
sV\u793e\u79d1\u5b66\u9662
p3181
g434
sg3104
g518
sg3062
g599
sg681
g682
sV\u7535\u673a\u7cfb
p3182
g762
sg36
g841
sV\u822a\u9662
p3183
g919
sV\u7ecf\u7ba1\u5b66\u9662
p3184
g1770
sg2863
g1052
sg692
g1124
sg1209
g1195
sV\u6cd5\u5b66\u9662
p3185
g1270
sg699
g1344
sg134
g1425
sg62
g1616
sg1217
g1633
sg774
g2684
sg787
g985
sg180
g1845
sV\u6c7d\u8f66\u7cfb
p3186
g1916
sV\u5916\u6587\u7cfb
p3187
g1980
sV\u5316\u5de5\u7cfb
p3188
g2056
sg1803
g2119
sg639
g2193
sV\u6838\u7814\u9662
p3189
g2263
sg802
g2337
sV\u7f8e\u672f\u5b66\u9662
p3190
g2408
sg562
g2472
sV\u533b\u5b66\u9662
p3191
g2553
sV\u5de5\u7269\u7cfb
p3192
g2618
sg60
g1561
sg1583
g1706
sg2823
g2775
sg3123
g2857
sg3124
g2917
sg1409
g2981
ssg32
(dp3193
g60
g1563
sV\u7cbe\u4eea\u7cfb
p3194
g231
sg2675
g303
sV\u5de5\u4e1a\u5de5\u7a0b\u7cfb
p3195
g360
sV\u65b0\u95fb\u5b66\u9662
p3196
g2859
sg757
g520
sg3062
g601
sg433
g684
sg763
g764
sg36
g842
sg766
g920
sg1775
g1771
sV\u673a\u68b0\u7cfb
p3197
g1054
sg2128
g1125
sg3132
g1197
sg1283
g1272
sV\u81ea\u52a8\u5316\u7cfb
p3198
g154
sV\u4eba\u6587\u5b66\u9662
p3199
g1346
sV\u751f\u547d\u5b66\u9662
p3200
g1426
sg3047
g1508
sg1217
g1635
sV\u516c\u7ba1\u5b66\u9662
p3201
g1707
sg990
g987
sV\u73af\u5883\u5b66\u9662
p3202
g1847
sg3135
g1917
sV\u5316\u5de5\u7cfb
p3203
g2058
sV\u7269\u7406\u7cfb
p3204
g2121
sV\u673a\u68b0\u5b66\u9662
p3205
g2195
sg1385
g2265
sg1459
g2329
sg560
g2409
sg3074
g2474
sV\u533b\u5b66\u9662
p3206
g2554
sg3075
g2620
sg774
g2685
sg1096
g1982
sg2662
g2776
sg814
g436
sV\u5efa\u7b51\u5b66\u9662
p3207
g2919
sV\u5efa\u7ba1\u7cfb
p3208
g2982
ssg34
(dp3209
V\u6c34\u5229\u7cfb
p3210
g1200
sg108
g2759
sV\u4eba\u6587\u5b66\u9662
p3211
g1349
sV\u793e\u79d1\u5b66\u9662
p3212
g439
sV\u751f\u547d\u5b66\u9662
p3213
g1429
sV\u6838\u7814\u9662
p3214
g2267
sg821
g822
ssg36
(dp3215
V\u81ea\u52a8\u5316\u7cfb
p3216
g155
sV\u6c34\u5229\u7cfb
p3217
g1198
sg216
g232
sV\u5de5\u4e1a\u5de5\u7a0b\u7cfb
p3218
g361
sg834
g2860
sg2681
g521
sg3062
g602
sg2262
g685
sV\u7535\u673a\u7cfb
p3219
g765
sg36
g843
sg3085
g921
sg1639
g1772
sV\u673a\u68b0\u7cfb
p3220
g1055
sg446
g1126
sg653
g2686
sg1283
g1273
sg617
g1347
sg1000
g1427
sV\u4e2d\u6587\u7cfb
p3221
g1509
sg1217
g1636
sV\u516c\u7ba1\u5b66\u9662
p3222
g1708
sg787
g988
sg3051
g1848
sg633
g1918
sg3175
g2059
sg1086
g2122
sg3205
g2196
sV\u6838\u7814\u9662
p3223
g2266
sg3072
g2340
sg2890
g2410
sg562
g2475
sg1678
g2555
sg890
g2621
sg60
g1564
sg108
g2745
sV\u6750\u6599\u5b66\u9662
p3224
g2777
sg2603
g2920
sg1015
g1983
sV\u793e\u79d1\u5b66\u9662
p3225
g437
sV\u5efa\u7ba1\u7cfb
p3226
g2983
ssg38
(dp3227
V\u81ea\u52a8\u5316\u7cfb
p3228
g157
sV\u6c34\u5229\u7cfb
p3229
g1202
sg216
g234
sg2184
g305
sg3195
g363
sV\u65b0\u95fb\u5b66\u9662
p3230
g2861
sg513
g523
sV\u7535\u5b50\u7cfb
p3231
g604
sg1343
g687
sg435
g767
sg36
g845
sg3169
g826
sg922
g923
sV\u7ecf\u7ba1\u5b66\u9662
p3232
g1774
sg2863
g1057
sg3109
g1127
sV\u571f\u6728\u7cfb
p3233
g2688
sg1066
g1275
sV\u4eba\u6587\u5b66\u9662
p3234
g1351
sg1000
g1431
sV\u4e2d\u6587\u7cfb
p3235
g1510
sg1790
g1638
sg943
g1710
sg846
g989
sg3134
g1850
sV\u6c7d\u8f66\u7cfb
p3236
g1920
sV\u5916\u6587\u7cfb
p3237
g1985
sg1153
g2061
sV\u7269\u7406\u7cfb
p3238
g2124
sg1945
g2198
sg1594
g2269
sg3072
g2342
sg963
g2412
sV\u9a6c\u514b\u601d\u4e3b\u4e49\u5b66\u9662
p3239
g2477
sV\u533b\u5b66\u9662
p3240
g2557
sg3121
g2623
sg60
g1566
sV\u6750\u6599\u5b66\u9662
p3241
g2779
sV\u793e\u79d1\u5b66\u9662
p3242
g441
sg2603
g2922
sg268
g2985
ssg40
(dp3243
g139
g159
sV\u7cbe\u4eea\u7cfb
p3244
g258
sg143
g365
sV\u65b0\u95fb\u5b66\u9662
p3245
g2877
sg3128
g525
sV\u7535\u5b50\u7cfb
p3246
g630
sg1705
g710
sg435
g788
sg36
g847
sV\u822a\u9662
p3247
g925
sg990
g991
sV\u673a\u68b0\u7cfb
p3248
g1079
sg772
g1148
sV\u571f\u6728\u7cfb
p3249
g2708
sg166
g1296
sV\u4eba\u6587\u5b66\u9662
p3250
g1373
sV\u751f\u547d\u5b66\u9662
p3251
g1448
sg1790
g1658
sg943
g1728
sV\u7ecf\u7ba1\u5b66\u9662
p3252
g1794
sg180
g1852
sV\u6c7d\u8f66\u7cfb
p3253
g1939
sV\u5916\u6587\u7cfb
p3254
g2009
sg1017
g2081
sg2087
g2144
sg639
g2199
sV\u6838\u7814\u9662
p3255
g2271
sV\u7f8e\u672f\u5b66\u9662
p3256
g2433
sV\u9a6c\u514b\u601d\u4e3b\u4e49\u5b66\u9662
p3257
g2495
sV\u533b\u5b66\u9662
p3258
g2579
sg60
g1585
sV\u5de5\u7269\u7cfb
p3259
g2640
sV\u6c34\u5229\u7cfb
p3260
g1222
sg108
g2743
sV\u6750\u6599\u5b66\u9662
p3261
g2800
sg2114
g463
sV\u5efa\u7b51\u5b66\u9662
p3262
g2942
sg2829
g3003
ssg42
(dp3263
V\u81ea\u52a8\u5316\u7cfb
p3264
g161
sV\u6c34\u5229\u7cfb
p3265
g1206
sV\u7cbe\u4eea\u7cfb
p3266
g238
sV\u7535\u673a\u7cfb
p3267
g771
sV\u5de5\u4e1a\u5de5\u7a0b\u7cfb
p3268
g367
sg3037
g445
sg513
g527
sg982
g608
sg3129
g691
sg3237
g1989
sg36
g849
sg3063
g927
sg1775
g1777
sg1060
g1061
sg1207
g1131
sg774
g2692
sg1928
g1278
sV\u4eba\u6587\u5b66\u9662
p3269
g1354
sV\u751f\u547d\u5b66\u9662
p3270
g1434
sg3235
g1513
sg2795
g1642
sg542
g1714
sV\u73af\u5883\u5b66\u9662
p3271
g1853
sg1082
g1923
sg2085
g2065
sV\u7269\u7406\u7cfb
p3272
g2127
sg3136
g2201
sg1385
g2273
sg3137
g2346
sg3256
g2416
sg562
g2480
sg1678
g2561
sV\u5de5\u7269\u7cfb
p3273
g2626
sg60
g1570
sg3163
g2782
sg577
g2864
sV\u5efa\u7b51\u5b66\u9662
p3274
g2926
sV\u5efa\u7ba1\u7cfb
p3275
g2989
ssg44
(dp3276
V\u81ea\u52a8\u5316\u7cfb
p3277
g163
sV\u7cbe\u4eea\u7cfb
p3278
g240
sg294
g309
sV\u7535\u673a\u7cfb
p3279
g773
sg3036
g369
sg1173
g447
sg3128
g529
sg3039
g610
sg1123
g693
sV\u5916\u6587\u7cfb
p3280
g1991
sg36
g851
sg3148
g929
sV\u7ecf\u7ba1\u5b66\u9662
p3281
g1779
sg3044
g1063
sg1132
g1133
sg255
g2694
sg1066
g1280
sg2698
g1356
sg1214
g1436
sg2003
g1515
sg1217
g1643
sV\u516c\u7ba1\u5b66\u9662
p3282
g1715
sV\u5fae\u7eb3\u7535\u5b50\u7cfb
p3283
g993
sV\u73af\u5883\u5b66\u9662
p3284
g1855
sg2879
g1925
sg1153
g2066
sg1592
g2129
sg639
g2203
sg1409
g2991
sV\u6570\u5b66\u7cfb
p3285
g2348
sV\u7f8e\u672f\u5b66\u9662
p3286
g2418
sg3048
g2481
sg564
g2531
sV\u533b\u5b66\u9662
p3287
g2563
sg60
g1572
sg3075
g2627
sV\u6c34\u5229\u7cfb
p3288
g1208
sg1171
g2784
sg834
g2865
sg3262
g2927
sg3142
g2275
ssg46
(dp3289
g3277
g165
sg216
g242
sg2184
g311
sV\u5de5\u4e1a\u5de5\u7a0b\u7cfb
p3290
g371
sg3056
g2866
sg1975
g504
sg3039
g612
sg3084
g735
sV\u7535\u673a\u7cfb
p3291
g750
sg36
g886
sV\u822a\u9662
p3292
g906
sV\u7ecf\u7ba1\u5b66\u9662
p3293
g1781
sg2863
g1104
sg446
g1135
sg1209
g1210
sg1283
g1282
sg617
g1358
sV\u751f\u547d\u5b66\u9662
p3294
g1473
sg3154
g1540
sV\u6559\u7814\u9662
p3295
g1684
sg3076
g2731
sV\u5fae\u7eb3\u7535\u5b50\u7cfb
p3296
g1027
sg3051
g1894
sg1450
g1927
sV\u5316\u5de5\u7cfb
p3297
g2042
sg3204
g2131
sV\u673a\u68b0\u5b66\u9662
p3298
g2205
sg1385
g2277
sg3072
g2350
sg3073
g2451
sV\u9a6c\u514b\u601d\u4e3b\u4e49\u5b66\u9662
p3299
g2510
sg965
g2565
sg1243
g2661
sg60
g1598
sV\u5efa\u7b51\u5b66\u9662
p3300
g2908
sV\u516c\u7ba1\u5b66\u9662
p3301
g1717
sg2823
g2815
sg895
g2834
sg3077
g491
sg2024
g1993
sg3226
g3023
ssg48
(dp3302
g3264
g167
sg216
g244
sg294
g313
sg143
g372
sV\u65b0\u95fb\u5b66\u9662
p3303
g2868
sg3038
g533
sg3039
g614
sg517
g696
sV\u7535\u673a\u7cfb
p3304
g777
sg36
g855
sg2411
g933
sg3043
g1783
sg2863
g1067
sg2783
g1137
sg2067
g2697
sg1283
g1284
sg314
g1360
sg456
g1439
sg3047
g1518
sV\u6559\u7814\u9662
p3305
g1647
sg2167
g1719
sg364
g997
sg3051
g1858
sV\u6c7d\u8f66\u7cfb
p3306
g1929
sV\u5316\u5de5\u7cfb
p3307
g2070
sg265
g2133
sg1945
g2207
sg3208
g2995
sg802
g2352
sg963
g2422
sV\u9a6c\u514b\u601d\u4e3b\u4e49\u5b66\u9662
p3308
g2485
sg198
g2567
sg60
g1576
sg201
g2629
sg1209
g1212
sV\u5efa\u7b51\u5b66\u9662
p3309
g2931
sg108
g2749
sg2823
g2787
sg895
g2836
sg1173
g451
sg2024
g1995
sg3165
g2279
ssg50
(dp3310
V\u5916\u6587\u7cfb
p3311
g1997
sV\u73af\u5883\u5b66\u9662
p3312
g1860
sg3145
g374
sV\u6750\u6599\u5b66\u9662
p3313
g2789
sV\u6cd5\u5b66\u9662
p3314
g1286
sV\u6c7d\u8f66\u7cfb
p3315
g1931
sV\u5316\u5de5\u7cfb
p3316
g2072
sg1285
g1331
sV\u4eba\u6587\u5b66\u9662
p3317
g1362
sV\u793e\u79d1\u5b66\u9662
p3318
g453
sV\u751f\u547d\u5b66\u9662
p3319
g1441
sV\u7535\u5b50\u7cfb
p3320
g616
sg3084
g698
sV\u5efa\u7b51\u5b66\u9662
p3321
g2932
sV\u6570\u5b66\u7cfb
p3322
g2354
sg289
g2281
ssg52
(dp3323
g60
g1580
sV\u7cbe\u4eea\u7cfb
p3324
g246
sg507
g315
sg2677
g376
sg428
g455
sg513
g535
sg3039
g618
sg1343
g700
sg763
g779
sg36
g858
sg3130
g935
sg2558
g1784
sg2863
g1069
sV\u8f6f\u4ef6\u5b66\u9662
p3325
g1139
sg1209
g1213
sg1211
g1288
sg1412
g169
sg1363
g1364
sg456
g1442
sg2003
g1519
sg2287
g1649
sV\u516c\u7ba1\u5b66\u9662
p3326
g1721
sV\u5fae\u7eb3\u7535\u5b50\u7cfb
p3327
g999
sg3051
g1862
sg633
g1933
sg3309
g2933
sg2583
g2074
sg3272
g2135
sg2152
g2209
sg1807
g2283
sg3137
g2356
sg3160
g2424
sg562
g2489
sg276
g2569
sV\u5de5\u7269\u7cfb
p3328
g2630
sg1958
g2699
sg3163
g2792
sg2454
g2839
sV\u65b0\u95fb\u5b66\u9662
p3329
g2869
sV\u5916\u6587\u7cfb
p3330
g2001
sg581
g2997
ssg54
(dp3331
g128
g135
sg60
g1581
sg216
g248
sg2184
g317
sg143
g378
sV\u65b0\u95fb\u5b66\u9662
p3332
g2870
sg513
g537
sg3062
g620
sg3040
g702
sV\u7535\u673a\u7cfb
p3333
g781
sg36
g860
sg3085
g937
sV\u7ecf\u7ba1\u5b66\u9662
p3334
g1786
sg2863
g1071
sg3109
g1141
sg3132
g1215
sg3151
g1289
sg1412
g171
sg534
g1365
sg377
g1443
sg3154
g1521
sg1217
g1651
sg3201
g1722
sg257
g1001
sg3134
g1864
sV\u6c7d\u8f66\u7cfb
p3335
g1935
sg1153
g2075
sg1453
g2137
sg1945
g2211
sg398
g2285
sg3072
g2358
sg3073
g2425
sg3048
g2491
sV\u836f\u5b66\u9662
p3336
g2541
sg3240
g2571
sg201
g2632
sg2067
g2700
sg3187
g2002
sV\u6750\u6599\u5b66\u9662
p3337
g2794
sg895
g2843
sg2114
g457
sg3124
g2935
sV\u5efa\u7ba1\u7cfb
p3338
g2999
ssg56
(dp3339
V\u7ecf\u7ba1\u5b66\u9662
p3340
g1787
sV\u5fae\u7eb3\u7535\u5b50\u7cfb
p3341
g1003
sg3044
g1072
sg1599
g2573
sg460
g1724
sg613
g1291
sg1086
g2138
sg3250
g1367
sg3303
g2871
sg861
g1491
sg36
g862
sg3073
g2427
sV\u822a\u9662
p3342
g939
ssg58
(dp3343
g3126
g250
sg143
g380
sg2172
g2872
sV\u7535\u5b50\u7cfb
p3344
g622
sV\u70ed\u80fd\u7cfb
p3345
g704
sV\u7535\u673a\u7cfb
p3346
g783
sg36
g864
sg3183
g941
sV\u7ecf\u7ba1\u5b66\u9662
p3347
g1789
sV\u673a\u68b0\u7cfb
p3348
g1074
sV\u8f6f\u4ef6\u5b66\u9662
p3349
g1143
sV\u571f\u6728\u7cfb
p3350
g2702
sg3234
g1369
sg377
g1444
sg940
g1522
sV\u6559\u7814\u9662
p3351
g1653
sg257
g1005
sV\u73af\u5883\u5b66\u9662
p3352
g1866
sV\u5efa\u7b51\u5b66\u9662
p3353
g2936
sg1153
g2077
sg3204
g2139
sV\u673a\u68b0\u5b66\u9662
p3354
g2213
sg398
g2286
sV\u6570\u5b66\u7cfb
p3355
g2359
sg3016
g2428
sg405
g2574
sV\u5de5\u7269\u7cfb
p3356
g2634
sg1539
g1216
sg285
g458
sg1534
g2004
sg581
g3000
ssg60
(dp3357
V\u81ea\u52a8\u5316\u7cfb
p3358
g200
sg216
g280
sV\u5de5\u4e1a\u5de5\u7a0b\u7cfb
p3359
g407
sg3056
g2894
sV\u5316\u5b66\u7cfb
p3360
g570
sV\u7535\u5b50\u7cfb
p3361
g638
sV\u70ed\u80fd\u7cfb
p3362
g731
sV\u7535\u673a\u7cfb
p3363
g811
sg36
g892
sg1565
g969
sg3232
g1818
sV\u673a\u68b0\u7cfb
p3364
g1100
sg2128
g1166
sg530
g2713
sV\u6cd5\u5b66\u9662
p3365
g1317
sg3138
g2448
sg1363
g1395
sg54
g1469
sV\u6559\u7814\u9662
p3366
g1680
sg1851
g1019
sg3134
g1890
sV\u6c7d\u8f66\u7cfb
p3367
g1956
sg3116
g2099
sg1803
g2166
sg289
g2298
sV\u6570\u5b66\u7cfb
p3368
g2382
sg2660
g1245
sg3048
g2518
sV\u533b\u5b66\u9662
p3369
g2595
sV\u5de5\u7269\u7cfb
p3370
g2646
sg60
g1603
sg2823
g2822
sg3207
g2960
sg3168
g1967
sV\u793e\u79d1\u5b66\u9662
p3371
g487
ssg62
(dp3372
g1611
g404
sV\u571f\u6728\u7cfb
p3373
g2705
sV\u5316\u5b66\u7cfb
p3374
g539
sV\u7535\u5b50\u7cfb
p3375
g648
sg62
g1617
ssg64
(dp3376
V\u81ea\u52a8\u5316\u7cfb
p3377
g175
sV\u6c34\u5229\u7cfb
p3378
g1218
sV\u7cbe\u4eea\u7cfb
p3379
g254
sV\u751f\u533b\u7cfb
p3380
g319
sg590
g382
sg428
g459
sV\u5316\u5b66\u7cfb
p3381
g541
sg2260
g626
sg681
g706
sg3041
g784
sg36
g867
sg3063
g942
sg3293
g1791
sV\u673a\u68b0\u7cfb
p3382
g1075
sg446
g1144
sg1958
g2706
sg1283
g1293
sg534
g1370
sg377
g1445
sg861
g1495
sg1217
g1654
sg2167
g1725
sg1147
g1007
sV\u73af\u5883\u5b66\u9662
p3383
g1869
sg3335
g1936
sg3237
g2005
sV\u5316\u5de5\u7cfb
p3384
g2078
sV\u7269\u7406\u7cfb
p3385
g2140
sg3205
g2215
sV\u6838\u7814\u9662
p3386
g2288
sg3072
g2360
sg3190
g2429
sg3239
g2493
sV\u533b\u5b66\u9662
p3387
g2575
sg3370
g2637
sg60
g1582
sV\u6750\u6599\u5b66\u9662
p3388
g2796
sg3303
g2873
sg1690
g2938
sg581
g3001
ssg66
(dp3389
V\u81ea\u52a8\u5316\u7cfb
p3390
g177
sV\u7cbe\u4eea\u7cfb
p3391
g282
sV\u5de5\u4e1a\u5de5\u7a0b\u7cfb
p3392
g384
sV\u793e\u79d1\u5b66\u9662
p3393
g461
sg513
g543
sV\u7535\u5b50\u7cfb
p3394
g628
sg3040
g708
sg153
g786
sg36
g868
sg1709
g944
sV\u7ecf\u7ba1\u5b66\u9662
p3395
g1820
sV\u673a\u68b0\u7cfb
p3396
g1077
sg1435
g1146
sV\u571f\u6728\u7cfb
p3397
g2707
sg1928
g1295
sg3016
g2431
sg617
g1372
sV\u751f\u547d\u5b66\u9662
p3398
g1446
sg62
g1615
sV\u6559\u7814\u9662
p3399
g1656
sg1371
g1726
sg3296
g1009
sg180
g1871
sg3135
g1937
sg1153
g2080
sg1086
g2168
sg2903
g2290
sg802
g2362
sg3260
g1249
sg3239
g2494
sV\u533b\u5b66\u9662
p3400
g2577
sV\u5de5\u7269\u7cfb
p3401
g2638
sg60
g1584
sg793
g2940
sg108
g2751
sg3241
g2798
sV\u65b0\u95fb\u5b66\u9662
p3402
g2896
sg2024
g2007
ssg68
(dp3403
V\u81ea\u52a8\u5316\u7cfb
p3404
g172
ssg70
(dp3405
sg72
(dp3406
g3264
g179
sV\u7cbe\u4eea\u7cfb
p3407
g236
sg294
g307
sg910
g386
sV\u793e\u79d1\u5b66\u9662
p3408
g443
sg757
g545
sg596
g606
sV\u70ed\u80fd\u7cfb
p3409
g689
sV\u7535\u673a\u7cfb
p3410
g769
sg36
g870
sg3247
g946
sg1775
g1776
sg2863
g1059
sV\u8f6f\u4ef6\u5b66\u9662
p3411
g1129
sg1209
g1204
sg312
g1276
sg534
g1352
sg456
g1432
sg940
g1511
sg2795
g1640
sg255
g2690
sg257
g1010
sg180
g1873
sg3135
g1921
sV\u5316\u5de5\u7cfb
p3412
g2063
sg3176
g2125
sg639
g2217
sg3208
g2987
sg3137
g2344
sV\u7f8e\u672f\u5b66\u9662
p3413
g2414
sg562
g2479
sg577
g2862
sg3400
g2559
sV\u5de5\u7269\u7cfb
p3414
g2624
sg60
g1568
sg943
g1712
sg108
g2744
sg573
g2780
sg895
g2832
sg2603
g2924
sg1799
g1987
sV\u6838\u7814\u9662
p3415
g2292
ssg74
(dp3416
V\u81ea\u52a8\u5316\u7cfb
p3417
g181
sg216
g260
sV\u5de5\u4e1a\u5de5\u7a0b\u7cfb
p3418
g388
sg3127
g2878
sV\u5316\u5b66\u7cfb
p3419
g547
sg3394
g632
sg3040
g712
sg519
g790
sg36
g872
sV\u822a\u9662
p3420
g948
sg1775
g1796
sg2863
g1081
sg772
g1150
sg255
g2710
sg3111
g1298
sg3171
g1375
sV\u751f\u547d\u5b66\u9662
p3421
g1449
sg3154
g1524
sg865
g2497
sg2937
g1660
sg3155
g1730
sg257
g1012
sg1874
g1875
sg3052
g1940
sg2085
g2083
sV\u7269\u7406\u7cfb
p3422
g2146
sV\u673a\u68b0\u5b66\u9662
p3423
g2219
sg2505
g2293
sV\u6570\u5b66\u7cfb
p3424
g2364
sg3190
g2435
sg2024
g2011
sg1678
g2580
sg60
g1587
sg3259
g2642
sg1026
g1224
sg1171
g2802
sg3037
g465
sg1690
g2943
sg211
g3005
ssg76
(dp3425
g1183
g183
sg216
g262
sV\u5de5\u4e1a\u5de5\u7a0b\u7cfb
p3426
g390
sV\u793e\u79d1\u5b66\u9662
p3427
g467
sg3104
g549
sV\u7535\u5b50\u7cfb
p3428
g634
sg151
g713
sV\u7535\u673a\u7cfb
p3429
g792
sg36
g874
sg766
g950
sV\u7ecf\u7ba1\u5b66\u9662
p3430
g1798
sg1922
g1083
sg1132
g1152
sg1209
g1225
sg1928
g1300
sg314
g1377
sg2842
g1451
sg2701
g1526
sg2492
g1662
sg627
g1732
sg1851
g1014
sg2801
g1877
sg1299
g1941
sg1153
g2084
sg60
g1589
sg1945
g2221
sg581
g3007
sg3072
g2366
sV\u7f8e\u672f\u5b66\u9662
p3431
g2436
sg3239
g2498
sg1022
g2582
sg1891
g2644
sV\u571f\u6728\u7cfb
p3432
g2711
sg1253
g2945
sV\u6750\u6599\u5b66\u9662
p3433
g2803
sg3123
g2880
sg3164
g2013
sV\u6838\u7814\u9662
p3434
g2295
ssg78
(dp3435
g3144
g197
sg3126
g275
sg507
g341
sg143
g392
sg3056
g2882
sg1975
g572
sg3062
g662
sV\u70ed\u80fd\u7cfb
p3436
g743
sg1981
g817
sg36
g887
sg3130
g952
sg1986
g1800
sV\u673a\u68b0\u7cfb
p3437
g1097
sg772
g1170
sV\u571f\u6728\u7cfb
p3438
g2724
sg1283
g1313
sV\u4eba\u6587\u5b66\u9662
p3439
g1406
sV\u751f\u547d\u5b66\u9662
p3440
g1481
sg2003
g1535
sg3048
g2520
sg3049
g1664
sg1371
g1754
sg3296
g1016
sg1523
g1886
sV\u6c7d\u8f66\u7cfb
p3441
g1953
sV\u5316\u5de5\u7cfb
p3442
g2101
sV\u7269\u7406\u7cfb
p3443
g2148
sg1945
g2233
sV\u5efa\u7ba1\u7cfb
p3444
g3018
sV\u6570\u5b66\u7cfb
p3445
g2339
sV\u7f8e\u672f\u5b66\u9662
p3446
g2446
sg2024
g2025
sV\u5de5\u7269\u7cfb
p3447
g2656
sV\u6c34\u5229\u7cfb
p3448
g1247
sg3337
g2828
sg3225
g469
sg1900
g2947
sV\u6838\u7814\u9662
p3449
g2322
ssg80
(dp3450
g3277
g185
sV\u6c34\u5229\u7cfb
p3451
g1227
sg216
g264
sV\u751f\u533b\u7cfb
p3452
g321
sV\u5de5\u4e1a\u5de5\u7a0b\u7cfb
p3453
g393
sg3427
g471
sg513
g551
sV\u7535\u5b50\u7cfb
p3454
g637
sg151
g715
sV\u7535\u673a\u7cfb
p3455
g796
sg36
g876
sg3247
g954
sg3131
g1802
sg1433
g1085
sg1435
g1154
sg2067
g2712
sg1211
g1302
sg3269
g1380
sg1214
g1452
sg861
g1484
sg3154
g1528
sg381
g1665
sV\u516c\u7ba1\u5b66\u9662
p3456
g1734
sg257
g1018
sg1011
g1878
sV\u6c7d\u8f66\u7cfb
p3457
g1942
sg3164
g2014
sg2085
g2086
sg1086
g2150
sg1945
g2223
sg1670
g2297
sg3137
g2368
sg402
g2438
sg3048
g2500
sg276
g2584
sg3121
g2645
sg60
g1591
sV\u6750\u6599\u5b66\u9662
p3458
g2806
sg3123
g2883
sg3274
g2949
sg881
g3009
ssg82
(dp3459
g3216
g187
sg216
g266
sV\u751f\u533b\u7cfb
p3460
g323
sg2112
g395
sg2172
g2884
sV\u5316\u5b66\u7cfb
p3461
g553
sV\u7535\u5b50\u7cfb
p3462
g646
sV\u70ed\u80fd\u7cfb
p3463
g717
sV\u7535\u673a\u7cfb
p3464
g798
sg36
g878
sg3130
g956
sg1567
g1804
sg160
g1087
sg3411
g1156
sg1209
g1229
sV\u6cd5\u5b66\u9662
p3465
g1304
sV\u4eba\u6587\u5b66\u9662
p3466
g1382
sg3153
g1454
sV\u9ad8\u7814\u9662
p3467
g1486
sV\u4e2d\u6587\u7cfb
p3468
g1529
sg3048
g2502
sg381
g1667
sV\u571f\u6728\u7cfb
p3469
g2721
sg871
g1879
sV\u6c7d\u8f66\u7cfb
p3470
g1944
sg3203
g2088
sg1453
g2151
sg1383
g2225
sg881
g3011
sg3355
g2370
sg3286
g2440
sV\u5916\u6587\u7cfb
p3471
g2016
sg3287
g2586
sg3370
g2653
sg60
g1593
sg1819
g1735
sg2823
g2808
sg1324
g473
sg2603
g2950
sg3165
g2306
ssg84
(dp3472
sg86
(dp3473
V\u81ea\u52a8\u5316\u7cfb
p3474
g189
sV\u7cbe\u4eea\u7cfb
p3475
g267
sg2675
g325
sg3145
g397
sV\u65b0\u95fb\u5b66\u9662
p3476
g2886
sV\u5316\u5b66\u7cfb
p3477
g555
sV\u7535\u5b50\u7cfb
p3478
g640
sV\u70ed\u80fd\u7cfb
p3479
g719
sV\u7535\u673a\u7cfb
p3480
g800
sg36
g880
sV\u822a\u9662
p3481
g958
sV\u7ecf\u7ba1\u5b66\u9662
p3482
g1806
sV\u673a\u68b0\u7cfb
p3483
g1089
sV\u8f6f\u4ef6\u5b66\u9662
p3484
g1158
sV\u571f\u6728\u7cfb
p3485
g2715
sV\u6cd5\u5b66\u9662
p3486
g1306
sg2208
g1384
sg3251
g1456
sg3351
g1669
sV\u73af\u5883\u5b66\u9662
p3487
g1880
sg2220
g1946
sV\u5916\u6587\u7cfb
p3488
g2017
sV\u5316\u5de5\u7cfb
p3489
g2090
sV\u7269\u7406\u7cfb
p3490
g2153
sg1945
g2226
sg2247
g3012
sg3094
g2372
sV\u7f8e\u672f\u5b66\u9662
p3491
g2441
sg3048
g2504
sg1396
g2648
sV\u6c34\u5229\u7cfb
p3492
g1231
sg3099
g2810
sg3100
g475
sV\u5efa\u7b51\u5b66\u9662
p3493
g2952
sV\u6838\u7814\u9662
p3494
g2300
ssg88
(dp3495
g3264
g191
sV\u7cbe\u4eea\u7cfb
p3496
g290
sg2677
g399
sg3123
g2904
sV\u5316\u5b66\u7cfb
p3497
g557
sg759
g666
sV\u70ed\u80fd\u7cfb
p3498
g721
sV\u7535\u673a\u7cfb
p3499
g801
sg36
g902
sg3247
g960
sg1775
g1808
sV\u673a\u68b0\u7cfb
p3500
g1091
sV\u8f6f\u4ef6\u5b66\u9662
p3501
g1179
sg530
g2717
sg2566
g1308
sg479
g2442
sg314
g1386
sg1000
g1458
sg3154
g1531
sg625
g1671
sg2167
g1737
sg3341
g1020
sg1011
g1902
sV\u6c7d\u8f66\u7cfb
p3502
g1947
sg3116
g2092
sg2015
g2177
sg639
g2228
sg2301
g2302
sg3072
g2373
sg3132
g1232
sg1163
g2506
sV\u533b\u5b66\u9662
p3503
g2587
sg3259
g2649
sg60
g1595
sV\u5916\u6587\u7cfb
p3504
g2038
sg3458
g2812
sV\u793e\u79d1\u5b66\u9662
p3505
g499
sV\u5efa\u7b51\u5b66\u9662
p3506
g2953
sV\u5efa\u7ba1\u7cfb
p3507
g3030
ssg90
(dp3508
V\u81ea\u52a8\u5316\u7cfb
p3509
g193
sg216
g271
sg507
g327
sg2677
g401
sV\u793e\u79d1\u5b66\u9662
p3510
g478
sg354
g559
sV\u7535\u5b50\u7cfb
p3511
g644
sg840
g723
sg2473
g803
sg36
g884
sg1565
g962
sV\u7ecf\u7ba1\u5b66\u9662
p3512
g1809
sg3348
g1093
sg3325
g1160
sg255
g2719
sg3465
g1310
sV\u7f8e\u672f\u5b66\u9662
p3513
g2444
sg2698
g1388
sV\u751f\u547d\u5b66\u9662
p3514
g1460
sg2937
g1673
sg3201
g1738
sg1223
g1883
sg3441
g1949
sg1799
g2021
sg2085
g2094
sg3176
g2157
sg639
g2230
sg1385
g2304
sg802
g2374
sV\u6c34\u5229\u7cfb
p3515
g1234
sg3239
g2508
sg965
g2588
sg3259
g2651
sg60
g1596
sg573
g2814
sg3056
g2889
sg1690
g2954
sg2247
g3015
ssg92
(dp3516
g128
g137
sg3509
g195
sV\u6c34\u5229\u7cfb
p3517
g1236
sg216
g273
sg507
g329
sg143
g403
sg428
g480
sg3038
g561
sg3039
g647
sg3129
g725
sg3219
g805
sg36
g856
sg2411
g964
sg1775
g1811
sg2863
g1095
sg162
g1162
sg1958
g2723
sg166
g1311
sg1363
g1390
sg377
g1462
sg1004
g1533
sg2937
g1675
sg2167
g1740
sg364
g1021
sg1011
g1884
sg2879
g1951
sg2603
g2955
sg1153
g2095
sg3272
g2159
sV\u673a\u68b0\u5b66\u9662
p3518
g2232
sg398
g2307
sg802
g2376
sg479
g2445
sg3308
g2487
sg3287
g2590
sg201
g2654
sg60
g1578
sg108
g2761
sg2823
g2791
sg834
g2891
sg1799
g2023
sg3226
g3017
ssg94
(dp3519
V\u81ea\u52a8\u5316\u7cfb
p3520
g173
sg16
g252
sV\u793e\u79d1\u5b66\u9662
p3521
g482
sg513
g563
sV\u7535\u5b50\u7cfb
p3522
g624
sV\u70ed\u80fd\u7cfb
p3523
g727
sg36
g866
sV\u8f6f\u4ef6\u5b66\u9662
p3524
g1164
sV\u6c34\u5229\u7cfb
p3525
g1238
sg613
g1292
sg3171
g1392
sV\u751f\u547d\u5b66\u9662
p3526
g1464
sV\u6559\u7814\u9662
p3527
g1677
sV\u73af\u5883\u5b66\u9662
p3528
g1868
sg1226
g2096
sg1086
g2160
sg3118
g2378
sg562
g2511
sV\u5de5\u7269\u7cfb
p3529
g2636
sV\u571f\u6728\u7cfb
p3530
g2703
sV\u6750\u6599\u5b66\u9662
p3531
g2817
sV\u5efa\u7b51\u5b66\u9662
p3532
g2956
ssg96
(dp3533
g564
g2530
sV\u7ecf\u7ba1\u5b66\u9662
p3534
g1813
sV\u73af\u5883\u5b66\u9662
p3535
g1888
sV\u533b\u5b66\u9662
p3536
g2592
sV\u571f\u6728\u7cfb
p3537
g2726
sV\u6cd5\u5b66\u9662
p3538
g1315
sV\u6c34\u5229\u7cfb
p3539
g1240
sV\u7269\u7406\u7cfb
p3540
g2162
sV\u4eba\u6587\u5b66\u9662
p3541
g1393
sg1945
g2235
sV\u793e\u79d1\u5b66\u9662
p3542
g484
sV\u5316\u5b66\u7cfb
p3543
g565
sg840
g741
sV\u7535\u673a\u7cfb
p3544
g807
sV\u751f\u547d\u5b66\u9662
p3545
g1466
sV\u6570\u5b66\u7cfb
p3546
g2379
sV\u5de5\u7269\u7cfb
p3547
g2657
sg3048
g2513
ssg98
(dp3548
sg100
(dp3549
V\u81ea\u52a8\u5316\u7cfb
p3550
g199
sg3407
g277
sg3380
g331
sg143
g406
sV\u793e\u79d1\u5b66\u9662
p3551
g486
sg513
g567
sV\u7535\u5b50\u7cfb
p3552
g650
sg433
g730
sV\u7535\u673a\u7cfb
p3553
g808
sg36
g889
sg3420
g966
sg1775
g1815
sg160
g1099
sV\u8f6f\u4ef6\u5b66\u9662
p3554
g1165
sg3132
g1242
sg3151
g1316
sg2698
g1394
sV\u751f\u547d\u5b66\u9662
p3555
g1468
sg1865
g1536
sg3048
g2515
sg3351
g1679
sV\u516c\u7ba1\u5b66\u9662
p3556
g1744
sg3296
g1023
sg1523
g1889
sg2879
g1955
sg2583
g2097
sV\u7269\u7406\u7cfb
p3557
g2164
sg3205
g2236
sg3434
g2309
sg883
g2381
sg3016
g2447
sg2024
g2027
sV\u836f\u5b66\u9662
p3558
g2533
sg2593
g2594
sg60
g1600
sg3075
g2658
sV\u571f\u6728\u7cfb
p3559
g2727
sg3179
g2819
sV\u65b0\u95fb\u5b66\u9662
p3560
g2892
sg2603
g2958
sg581
g3020
ssg102
(dp3561
g3466
g1408
sV\u70ed\u80fd\u7cfb
p3562
g744
ssg104
(dp3563
g1412
g202
sg216
g279
sg2184
g333
sV\u5de5\u4e1a\u5de5\u7a0b\u7cfb
p3564
g409
sg3123
g2893
sg513
g569
sg3062
g652
sg30
g733
sg3219
g810
sg36
g891
sg1709
g968
sg1567
g1817
sV\u673a\u68b0\u7cfb
p3565
g1102
sg446
g1168
sg3141
g2729
sg312
g1319
sg3413
g2450
sg534
g1397
sV\u751f\u547d\u5b66\u9662
p3566
g1471
sV\u4e2d\u6587\u7cfb
p3567
g1538
sg3074
g2517
sg2937
g1682
sg3326
g1745
sg709
g1025
sg1874
g1892
sg1082
g1957
sg1153
g2098
sV\u7269\u7406\u7cfb
p3568
g2165
sg3423
g2238
sg1385
g2311
sg3072
g2384
sg2660
g1244
sg3115
g2029
sg965
g2597
sg1891
g2659
sg60
g1602
sV\u6750\u6599\u5b66\u9662
p3569
g2821
sg3242
g489
sg2603
g2959
sg2247
g3022
ssg106
(dp3570
g139
g204
sg216
g256
sg507
g335
sg2677
g411
sg1173
g449
sg3128
g531
sg3039
g654
sg3409
g694
sg763
g775
sg36
g853
sg3169
g828
sg2411
g931
sg1567
g1792
sg3565
g1065
sg446
g1169
sg2564
g1220
sg1283
g1321
sg534
g1399
sg456
g1438
sg3113
g1517
sg3048
g2483
sg2937
g1645
sg943
g1747
sg846
g995
sg3156
g1857
sg3135
g1959
sg1153
g2068
sg60
g1574
sV\u673a\u68b0\u5b66\u9662
p3571
g2240
sg1385
g2313
sg3072
g2385
sg3422
g2142
sg963
g2420
sg3164
g2030
sg3387
g2599
sg890
g2628
sg2695
g2696
sg108
g2748
sg2823
g2785
sg895
g2837
sg2172
g2875
sV\u5efa\u7b51\u5b66\u9662
p3572
g2929
sg3013
g2993
ssg108
(dp3573
g108
g2752
ssg110
(dp3574
g3228
g206
sg216
g284
sg507
g337
sg2112
g413
sg3225
g493
sg513
g574
sV\u7535\u5b50\u7cfb
p3575
g656
sg3084
g737
sg763
g813
sg36
g894
sg1709
g971
sg3043
g1822
sg3500
g1105
sg2783
g1172
sg2564
g1251
sg3151
g1322
sg617
g1401
sg536
g1476
sg861
g1488
sg3047
g1542
sg3351
g1686
sg3397
g2733
sg709
g1029
sg3156
g1896
sg1450
g1961
sg263
g2103
sg1803
g2169
sg3354
g2242
sg581
g3025
sg3137
g2387
sg963
g2453
sg3048
g2522
sg965
g2600
sg3075
g2663
sg60
g1605
sV\u5efa\u7b51\u5b66\u9662
p3576
g2962
sg542
g1749
sg2823
g2824
sg834
g2897
sg1799
g2032
sg663
g2968
sV\u6838\u7814\u9662
p3577
g2317
ssg112
(dp3578
g834
g2898
sg3419
g576
sg596
g658
sg36
g896
sg1711
g1824
sg3382
g1107
sg1746
g2734
sV\u6cd5\u5b66\u9662
p3579
g1323
sg1579
g1403
sg2842
g1478
sg562
g2524
sV\u6559\u7814\u9662
p3580
g1687
sg943
g1751
sg846
g1031
sg3535
g1897
sg2879
g1962
sg3204
g2171
sg268
g3026
sg3118
g2388
sg724
g2455
sV\u5916\u6587\u7cfb
p3581
g2033
sg3414
g2664
sg573
g2825
sg895
g2840
sV\u793e\u79d1\u5b66\u9662
p3582
g494
sg3309
g2963
sV\u6838\u7814\u9662
p3583
g2319
ssg114
(dp3584
g3144
g208
sg885
g1252
sg216
g223
sg3060
g339
sg143
g415
sg1118
g2853
sg513
g578
sg3039
g593
sg3147
g729
sg3219
g756
sg36
g835
sg3085
g913
sg2689
g1825
sg2863
g1046
sg3325
g1119
sg774
g2735
sg1283
g1266
sg2698
g1404
sg3514
g1420
sg1865
g1543
sg2287
g1689
sg1371
g1742
sg3271
g1839
sV\u6c7d\u8f66\u7cfb
p3585
g1963
sg416
g2964
sg2085
g2050
sg2585
g2173
sg1945
g2188
sg1385
g2257
sg3355
g2389
sg1389
g2402
sg562
g2467
sg3558
g2537
sV\u533b\u5b66\u9662
p3586
g2602
sg3259
g2666
sg60
g1555
sg3122
g2826
sg2454
g2845
sg3408
g496
sg2024
g2035
sg881
g3027
ssg116
(dp3587
g2603
g2965
sg216
g288
sg2677
g417
sg3056
g2902
sg2681
g580
sg3039
g635
sV\u70ed\u80fd\u7cfb
p3588
g739
sg153
g794
sg36
g900
sg3247
g974
sg3064
g1827
sg3044
g1109
sV\u8f6f\u4ef6\u5b66\u9662
p3589
g1176
sg1958
g2736
sg3065
g1327
sg3264
g210
sg3269
g1379
sg780
g1475
sg861
g1493
sg1004
g1545
sg2937
g1691
sg2167
g1752
sg257
g1033
sg3051
g1901
sg3135
g1965
sg80
g2106
sg3422
g2175
sg3571
g2246
sg3208
g3029
sg802
g2391
sg3138
g2459
sV\u9a6c\u514b\u601d\u4e3b\u4e49\u5b66\u9662
p3590
g2528
sg3287
g2604
sg60
g1609
sg3414
g2668
sg1780
g1254
sg108
g2757
sg3179
g2805
sg511
g498
sV\u5916\u6587\u7cfb
p3591
g2036
sV\u6838\u7814\u9662
p3592
g2315
ssg118
(dp3593
V\u8f6f\u4ef6\u5b66\u9662
p3594
g1178
sV\u5fae\u7eb3\u7535\u5b50\u7cfb
p3595
g1035
sg2737
g2969
sV\u7535\u5b50\u7cfb
p3596
g664
sV\u571f\u6728\u7cfb
p3597
g2738
ssg120
(dp3598
V\u81ea\u52a8\u5316\u7cfb
p3599
g212
sg3244
g269
sV\u5de5\u4e1a\u5de5\u7a0b\u7cfb
p3600
g419
sV\u65b0\u95fb\u5b66\u9662
p3601
g2887
sg2913
g582
sg596
g642
sV\u70ed\u80fd\u7cfb
p3602
g745
sV\u7535\u673a\u7cfb
p3603
g819
sg36
g882
sg3512
g1829
sg3044
g1111
sg3501
g1159
sg3217
g1256
sV\u6cd5\u5b66\u9662
p3604
g1329
sg1579
g1410
sV\u6559\u7814\u9662
p3605
g1693
sg2801
g1882
sV\u5316\u5de5\u7cfb
p3606
g2107
sV\u7269\u7406\u7cfb
p3607
g2155
sg639
g2248
sg3013
g3014
sg560
g2460
sg3447
g2670
sV\u571f\u6728\u7cfb
p3608
g2740
sg3531
g2830
sg980
g476
sg3115
g2019
sssS'_adj'
p3609
g3032
sS'adjlist_outer_dict_factory'
p3610
g7
sb.