(dp0
V\u5168\u7403\u521b\u65b0\u5b66\u9662
p1
I7
sV\u81ea\u52a8\u5316\u7cfb
p2
I547
sV\u7cbe\u4eea\u7cfb
p3
I239
sV\u751f\u533b\u7cfb
p4
I55
sV\u8ba1\u7b97\u673a\u7cfb
p5
I622
sV\u5de5\u4e1a\u5de5\u7a0b\u7cfb
p6
I404
sV\u793e\u79d1\u5b66\u9662
p7
I776
sV\u5316\u5b66\u7cfb
p8
I558
sV\u7535\u5b50\u7cfb
p9
I720
sV\u70ed\u80fd\u7cfb
p10
I444
sV\u7535\u673a\u7cfb
p11
I413
sV\u5730\u5b66\u7cfb
p12
I23
sV\u822a\u9662
p13
I573
sV\u5fae\u7eb3\u7535\u5b50\u7cfb
p14
I156
sV\u673a\u68b0\u7cfb
p15
I506
sV\u8f6f\u4ef6\u5b66\u9662
p16
I512
sV\u6c34\u5229\u7cfb
p17
I458
sV\u6cd5\u5b66\u9662
p18
I811
sV\u65b0\u96c5\u4e66\u9662
p19
I56
sV\u4eba\u6587\u5b66\u9662
p20
I580
sV\u751f\u547d\u5b66\u9662
p21
I876
sV\u9ad8\u7814\u9662
p22
I19
sV\u4e2d\u6587\u7cfb
p23
I82
sV\u6e05\u534e-\u4f2f\u514b\u5229\u6df1\u5733\u5b66\u9662
p24
I15
sV\u6559\u7814\u9662
p25
I169
sV\u516c\u7ba1\u5b66\u9662
p26
I357
sV\u82cf\u4e16\u6c11\u4e66\u9662
p27
I4
sV\u7ee7\u6559\u5b66\u9662
p28
I3
sV\u7ecf\u7ba1\u5b66\u9662
p29
I1097
sV\u73af\u5883\u5b66\u9662
p30
I542
sV\u6c7d\u8f66\u7cfb
p31
I405
sV\u5916\u6587\u7cfb
p32
I280
sV\u5316\u5de5\u7cfb
p33
I461
sV\u7269\u7406\u7cfb
p34
I507
sV\u4ea4\u53c9\u4fe1\u606f\u7814\u7a76\u9662
p35
I2
sV\u673a\u68b0\u5b66\u9662
p36
I181
sV\u6838\u7814\u9662
p37
I308
sV\u6570\u5b66\u7cfb
p38
I266
sV\u7f8e\u672f\u5b66\u9662
p39
I684
sV\u9a6c\u514b\u601d\u4e3b\u4e49\u5b66\u9662
p40
I122
sV\u836f\u5b66\u9662
p41
I40
sV\u533b\u5b66\u9662
p42
I384
sV\u80fd\u52a8\u7cfb
p43
I3
sV\u5de5\u7269\u7cfb
p44
I562
sV\u571f\u6728\u7cfb
p45
I651
sV\u8bbe\u8ba1\u9662
p46
I1
sV\u6750\u6599\u5b66\u9662
p47
I545
sV\u91d1\u878d\u5b66\u9662
p48
I62
sV\u65b0\u95fb\u5b66\u9662
p49
I465
sV\u5efa\u7b51\u5b66\u9662
p50
I678
sV\u5fae\u7535\u5b50\u6240
p51
I10
sV\u5efa\u7ba1\u7cfb
p52
I93
s.