ccopy_reg
_reconstructor
p0
(ctask_six
Portrait
p1
c__builtin__
object
p2
Ntp3
Rp4
(dp5
S'total_people'
p6
I1
sS'time_interval'
p7
(lp8
I0
aI0
aI0
asS'school'
p9
V\u5168\u7403\u521b\u65b0\u5b66\u9662
p10
sS'scale'
p11
(dp12
I2
I2
sI3
I5
sI4
I4
sI5
I3
ssS'attend_school'
p13
(dp14
V\u5168\u7403\u521b\u65b0\u5b66\u9662
p15
I11
sV\u7f8e\u672f\u5b66\u9662
p16
I2
sV\u6c34\u5229\u7cfb
p17
I1
ssS'scale_max'
p18
I5
sS'avg_launch'
p19
I4
sS'avg_attend'
p20
I14
sS'follow_school'
p21
(dp22
sb.