ccopy_reg
_reconstructor
p0
(ctask_six
Portrait
p1
c__builtin__
object
p2
Ntp3
Rp4
(dp5
S'total_people'
p6
I1
sS'time_interval'
p7
(lp8
I0
aI0
aI0
asS'school'
p9
V\u6821\u533b\u9662
p10
sS'scale'
p11
(dp12
I4
I1
sI6
I2
ssS'attend_school'
p13
(dp14
V\u70ed\u80fd\u7cfb
p15
I3
ssS'scale_max'
p16
I6
sS'avg_launch'
p17
I0
sS'avg_attend'
p18
I3
sS'follow_school'
p19
(dp20
sb.