ccopy_reg
_reconstructor
p0
(ctask_six
Portrait
p1
c__builtin__
object
p2
Ntp3
Rp4
(dp5
S'total_people'
p6
I1
sS'time_interval'
p7
(lp8
I0
aI0
aI0
asS'school'
p9
V\u6b63\u5927\u516c\u53f8
p10
sS'scale'
p11
(dp12
sS'attend_school'
p13
(dp14
sS'scale_max'
p15
I0
sS'avg_launch'
p16
I0
sS'avg_attend'
p17
I0
sS'follow_school'
p18
(dp19
sb.