ccopy_reg
_reconstructor
p0
(ctask_six
Portrait
p1
c__builtin__
object
p2
Ntp3
Rp4
(dp5
S'total_people'
p6
I1
sS'time_interval'
p7
(lp8
I0
aI0
aI0
asS'school'
p9
V\u7ee7\u6559\u5b66\u9662
p10
sS'scale'
p11
(dp12
I10
I1
ssS'attend_school'
p13
(dp14
V\u5168\u6821
p15
I1
ssS'scale_max'
p16
I10
sS'avg_launch'
p17
I0
sS'avg_attend'
p18
I1
sS'follow_school'
p19
(dp20
sb.