ccopy_reg
_reconstructor
p0
(ctask_six
Portrait
p1
c__builtin__
object
p2
Ntp3
Rp4
(dp5
S'total_people'
p6
I1
sS'time_interval'
p7
(lp8
I0
aI0
aI0
asS'school'
p9
V\u80fd\u52a8\u7cfb
p10
sS'scale'
p11
(dp12
I8
I2
sI5
I1
ssS'attend_school'
p13
(dp14
V\u4eba\u6587\u5b66\u9662
p15
I2
sV\u70ed\u80fd\u7cfb
p16
I1
ssS'scale_max'
p17
I8
sS'avg_launch'
p18
I0
sS'avg_attend'
p19
I3
sS'follow_school'
p20
(dp21
sb.