ccopy_reg
_reconstructor
p0
(ctask_six
Portrait
p1
c__builtin__
object
p2
Ntp3
Rp4
(dp5
S'total_people'
p6
I458
sS'time_interval'
p7
(lp8
I1
aI0
aI0
asS'school'
p9
V\u82cf\u4e16\u6c11\u4e66\u9662
p10
sS'scale'
p11
(dp12
S'3'
p13
I1
ssS'attend_school'
p14
(dp15
V\u81ea\u52a8\u5316\u7cfb
p16
I1
ssS'scale_max'
p17
I3
sS'avg_launch'
p18
I0
sS'avg_attend'
p19
I0
sS'follow_school'
p20
(dp21
S'\xe8\xae\xa1\xe7\xae\x97\xe6\x9c\xba\xe7\xb3\xbb'
p22
I1
ssb.