ccopy_reg
_reconstructor
p0
(ctask_six
Portrait
p1
c__builtin__
object
p2
Ntp3
Rp4
(dp5
S'total_people'
p6
I1
sS'time_interval'
p7
(lp8
I0
aI0
aI0
asS'school'
p9
V\u82cf\u4e16\u6c11\u4e66\u9662
p10
sS'scale'
p11
(dp12
I3
I1
ssS'attend_school'
p13
(dp14
V\u81ea\u52a8\u5316\u7cfb
p15
I1
ssS'scale_max'
p16
I3
sS'avg_launch'
p17
I0
sS'avg_attend'
p18
I1
sS'follow_school'
p19
(dp20
V\u8ba1\u7b97\u673a\u7cfb
p21
I1
ssb.