ccopy_reg
_reconstructor
p0
(ctask_six
Portrait
p1
c__builtin__
object
p2
Ntp3
Rp4
(dp5
S'total_people'
p6
I1
sS'time_interval'
p7
(lp8
I0
aI0
aI0
asS'school'
p9
V\u8ba1\u7b97\u4e2d\u5fc3
p10
sS'scale'
p11
(dp12
I17
I1
sI11
I1
ssS'attend_school'
p13
(dp14
V\u6559\u52a1\u5904
p15
I1
sV\u73af\u5883\u5b66\u9662
p16
I1
ssS'scale_max'
p17
I17
sS'avg_launch'
p18
I0
sS'avg_attend'
p19
I2
sS'follow_school'
p20
(dp21
V\u8f6f\u4ef6\u5b66\u9662
p22
I1
sV\u822a\u9662
p23
I1
ssb.