ccopy_reg
_reconstructor
p0
(ctask_six
Portrait
p1
c__builtin__
object
p2
Ntp3
Rp4
(dp5
S'total_people'
p6
I458
sS'time_interval'
p7
(lp8
I0
aI1
aI0
asS'school'
p9
V\u8bbe\u8ba1\u9662
p10
sS'scale'
p11
(dp12
S'19'
p13
I1
ssS'attend_school'
p14
(dp15
g10
I1
ssS'scale_max'
p16
I19
sS'avg_launch'
p17
I0
sS'avg_attend'
p18
I0
sS'follow_school'
p19
(dp20
sb.