ccopy_reg
_reconstructor
p0
(cnetworkx.classes.graph
Graph
p1
c__builtin__
object
p2
Ntp3
Rp4
(dp5
S'adjlist_inner_dict_factory'
p6
c__builtin__
dict
p7
sS'node_dict_factory'
p8
g7
sS'edge_attr_dict_factory'
p9
g7
sS'_node'
p10
(dp11
V\u5168\u7403\u521b\u65b0\u5b66\u9662
p12
(dp13
sV\u81ea\u52a8\u5316\u7cfb
p14
(dp15
sS'\xe5\xbe\xae\xe7\xba\xb3\xe7\x94\xb5\xe5\xad\x90\xe7\xb3\xbb'
p16
(dp17
sV\u7cbe\u4eea\u7cfb
p18
(dp19
sV\u5de5\u4e1a\u5de5\u7a0b\u7cfb
p20
(dp21
sV\u793e\u79d1\u5b66\u9662
p22
(dp23
sV\u5316\u5b66\u7cfb
p24
(dp25
sV\u7535\u5b50\u7cfb
p26
(dp27
sV\u70ed\u80fd\u7cfb
p28
(dp29
sV\u7535\u673a\u7cfb
p30
(dp31
sV\u5730\u5b66\u7cfb
p32
(dp33
sV\u571f\u6728\u7cfb
p34
(dp35
sS'\xe8\xae\xa1\xe7\xae\x97\xe6\x9c\xba\xe7\xb3\xbb'
p36
(dp37
sV\u822a\u9662
p38
(dp39
sV\u8f6f\u4ef6\u5b66\u9662
p40
(dp41
sV\u6c34\u5229\u7cfb
p42
(dp43
sV\u6cd5\u5b66\u9662
p44
(dp45
sV\u65b0\u96c5\u4e66\u9662
p46
(dp47
sV\u751f\u547d\u5b66\u9662
p48
(dp49
sV\u9ad8\u7814\u9662
p50
(dp51
sV\u6e05\u534e-\u4f2f\u514b\u5229\u6df1\u5733\u5b66\u9662
p52
(dp53
sV\u6559\u7814\u9662
p54
(dp55
sV\u516c\u7ba1\u5b66\u9662
p56
(dp57
sV\u82cf\u4e16\u6c11\u4e66\u9662
p58
(dp59
sV\u73af\u5883\u5b66\u9662
p60
(dp61
sS'\xe7\xbb\x8f\xe7\xae\xa1\xe5\xad\xa6\xe9\x99\xa2'
p62
(dp63
sV\u6c7d\u8f66\u7cfb
p64
(dp65
sV\u5316\u5de5\u7cfb
p66
(dp67
sV\u7269\u7406\u7cfb
p68
(dp69
sV\u6838\u7814\u9662
p70
(dp71
sS'\xe4\xba\xba\xe6\x96\x87\xe5\xad\xa6\xe9\x99\xa2'
p72
(dp73
sV\u6570\u5b66\u7cfb
p74
(dp75
sV\u7f8e\u672f\u5b66\u9662
p76
(dp77
sV\u9a6c\u514b\u601d\u4e3b\u4e49\u5b66\u9662
p78
(dp79
sV\u836f\u5b66\u9662
p80
(dp81
sV\u5de5\u7269\u7cfb
p82
(dp83
sS'\xe4\xba\xa4\xe5\x8f\x89\xe4\xbf\xa1\xe6\x81\xaf\xe7\xa0\x94\xe7\xa9\xb6\xe9\x99\xa2'
p84
(dp85
sV\u5efa\u7b51\u5b66\u9662
p86
(dp87
sS'\xe5\x8c\xbb\xe5\xad\xa6\xe9\x99\xa2'
p88
(dp89
sV\u8bbe\u8ba1\u9662
p90
(dp91
sV\u6750\u6599\u5b66\u9662
p92
(dp93
sV\u65b0\u95fb\u5b66\u9662
p94
(dp95
sV\u5916\u6587\u7cfb
p96
(dp97
sS'\xe6\x9c\xba\xe6\xa2\xb0\xe5\xad\xa6\xe9\x99\xa2'
p98
(dp99
ssS'graph'
p100
(dp101
sS'root_graph'
p102
g4
sS'_adj'
p103
(dp104
g12
(dp105
V\u5168\u7403\u521b\u65b0\u5b66\u9662
p106
(dp107
S'weight'
p108
I11
ssg62
(dp109
g108
I2
ssg82
(dp110
g108
I2
ssg42
(dp111
g108
I1
ssg20
(dp112
g108
I2
ssg22
(dp113
g108
I2
ssg48
(dp114
g108
I2
ssg54
(dp115
g108
I1
ssg76
(dp116
g108
I4
sssg14
(dp117
V\u81ea\u52a8\u5316\u7cfb
p118
(dp119
g108
I3130
ssg16
(dp120
g108
I84
ssg18
(dp121
g108
I279
ssV\u5de5\u4e1a\u5de5\u7a0b\u7cfb
p122
(dp123
g108
I518
ssV\u793e\u79d1\u5b66\u9662
p124
(dp125
g108
I424
ssg24
(dp126
g108
I137
ssg26
(dp127
g108
I1041
ssg28
(dp128
g108
I518
ssg30
(dp129
g108
I416
ssg36
(dp130
g108
I542
ssg34
(dp131
g108
I1881
ssg32
(dp132
g108
I8
ssg38
(dp133
g108
I293
ssg40
(dp134
g108
I670
ssV\u6c34\u5229\u7cfb
p135
(dp136
g108
I274
ssg44
(dp137
g108
I337
ssg46
(dp138
g108
I3
ssV\u751f\u547d\u5b66\u9662
p139
(dp140
g108
I615
ssg58
(dp141
g108
I1
ssV\u6559\u7814\u9662
p142
(dp143
g108
I129
ssg56
(dp144
g108
I183
ssg50
(dp145
g108
I6
ssg60
(dp146
g108
I241
ssg62
(dp147
g108
I676
ssg64
(dp148
g108
I294
ssg66
(dp149
g108
I284
ssg68
(dp150
g108
I251
ssg70
(dp151
g108
I258
ssg72
(dp152
g108
I353
ssg74
(dp153
g108
I113
ssV\u7f8e\u672f\u5b66\u9662
p154
(dp155
g108
I289
ssg78
(dp156
g108
I93
ssg80
(dp157
g108
I20
ssV\u5de5\u7269\u7cfb
p158
(dp159
g108
I289
ssg84
(dp160
g108
I76
ssg86
(dp161
g108
I366
ssg88
(dp162
g108
I454
ssg90
(dp163
g108
I1
ssg92
(dp164
g108
I295
ssg94
(dp165
g108
I214
ssg96
(dp166
g108
I61
ssg98
(dp167
g108
I294
sssg16
(dp168
g14
g120
sg16
(dp169
g108
I198
ssV\u7cbe\u4eea\u7cfb
p170
(dp171
g108
I47
ssg122
(dp172
g108
I60
ssV\u65b0\u95fb\u5b66\u9662
p173
(dp174
g108
I63
ssV\u5316\u5b66\u7cfb
p175
(dp176
g108
I19
ssV\u7535\u5b50\u7cfb
p177
(dp178
g108
I504
ssV\u70ed\u80fd\u7cfb
p179
(dp180
g108
I58
ssg30
(dp181
g108
I68
ssg36
(dp182
g108
I103
ssV\u571f\u6728\u7cfb
p183
(dp184
g108
I109
ssV\u5730\u5b66\u7cfb
p185
(dp186
g108
I3
ssg38
(dp187
g108
I57
ssV\u8f6f\u4ef6\u5b66\u9662
p188
(dp189
g108
I265
ssV\u6c34\u5229\u7cfb
p190
(dp191
g108
I43
ssV\u6cd5\u5b66\u9662
p192
(dp193
g108
I62
ssV\u751f\u547d\u5b66\u9662
p194
(dp195
g108
I70
ssV\u9ad8\u7814\u9662
p196
(dp197
g108
I2
ssg142
(dp198
g108
I49
ssg56
(dp199
g108
I39
ssV\u73af\u5883\u5b66\u9662
p200
(dp201
g108
I97
ssg62
(dp202
g108
I120
ssg64
(dp203
g108
I30
ssV\u5316\u5de5\u7cfb
p204
(dp205
g108
I53
ssV\u7269\u7406\u7cfb
p206
(dp207
g108
I30
ssg70
(dp208
g108
I21
ssg72
(dp209
g108
I137
ssV\u6570\u5b66\u7cfb
p210
(dp211
g108
I12
ssV\u7f8e\u672f\u5b66\u9662
p212
(dp213
g108
I65
ssV\u9a6c\u514b\u601d\u4e3b\u4e49\u5b66\u9662
p214
(dp215
g108
I10
ssV\u836f\u5b66\u9662
p216
(dp217
g108
I1
ssV\u5de5\u7269\u7cfb
p218
(dp219
g108
I89
ssg84
(dp220
g108
I12
ssg86
(dp221
g108
I98
ssg88
(dp222
g108
I98
ssg90
(dp223
g108
I1
ssV\u6750\u6599\u5b66\u9662
p224
(dp225
g108
I38
ssV\u793e\u79d1\u5b66\u9662
p226
(dp227
g108
I171
ssV\u5916\u6587\u7cfb
p228
(dp229
g108
I17
ssg98
(dp230
g108
I46
sssg18
(dp231
g14
g121
sg16
g171
sV\u7cbe\u4eea\u7cfb
p232
(dp233
g108
I616
ssV\u5de5\u4e1a\u5de5\u7a0b\u7cfb
p234
(dp235
g108
I101
ssV\u793e\u79d1\u5b66\u9662
p236
(dp237
g108
I212
ssV\u5316\u5b66\u7cfb
p238
(dp239
g108
I90
ssV\u7535\u5b50\u7cfb
p240
(dp241
g108
I784
ssV\u70ed\u80fd\u7cfb
p242
(dp243
g108
I137
ssg30
(dp244
g108
I103
ssg36
(dp245
g108
I217
ssV\u571f\u6728\u7cfb
p246
(dp247
g108
I260
ssg32
(dp248
g108
I4
ssg38
(dp249
g108
I273
ssg188
(dp250
g108
I621
ssV\u6c34\u5229\u7cfb
p251
(dp252
g108
I128
ssV\u6cd5\u5b66\u9662
p253
(dp254
g108
I213
ssg194
(dp255
g108
I233
ssg58
(dp256
g108
I1
ssV\u6559\u7814\u9662
p257
(dp258
g108
I125
ssg56
(dp259
g108
I73
ssg50
(dp260
g108
I5
ssV\u73af\u5883\u5b66\u9662
p261
(dp262
g108
I123
ssg62
(dp263
g108
I285
ssg64
(dp264
g108
I148
ssV\u5316\u5de5\u7cfb
p265
(dp266
g108
I101
ssV\u7269\u7406\u7cfb
p267
(dp268
g108
I145
ssg70
(dp269
g108
I64
ssg72
(dp270
g108
I122
ssV\u6570\u5b66\u7cfb
p271
(dp272
g108
I41
ssV\u7f8e\u672f\u5b66\u9662
p273
(dp274
g108
I87
ssV\u9a6c\u514b\u601d\u4e3b\u4e49\u5b66\u9662
p275
(dp276
g108
I49
ssV\u836f\u5b66\u9662
p277
(dp278
g108
I6
ssV\u5de5\u7269\u7cfb
p279
(dp280
g108
I142
ssg84
(dp281
g108
I34
ssV\u5efa\u7b51\u5b66\u9662
p282
(dp283
g108
I251
ssg88
(dp284
g108
I409
ssV\u6750\u6599\u5b66\u9662
p285
(dp286
g108
I187
ssV\u65b0\u95fb\u5b66\u9662
p287
(dp288
g108
I334
ssV\u5916\u6587\u7cfb
p289
(dp290
g108
I39
ssg98
(dp291
g108
I216
sssg20
(dp292
g12
g112
sg14
g123
sg16
g172
sg18
g235
sV\u5de5\u4e1a\u5de5\u7a0b\u7cfb
p293
(dp294
g108
I2008
ssV\u65b0\u95fb\u5b66\u9662
p295
(dp296
g108
I614
ssg24
(dp297
g108
I191
ssV\u7535\u5b50\u7cfb
p298
(dp299
g108
I385
ssV\u70ed\u80fd\u7cfb
p300
(dp301
g108
I422
ssV\u7535\u673a\u7cfb
p302
(dp303
g108
I314
ssg36
(dp304
g108
I364
ssV\u571f\u6728\u7cfb
p305
(dp306
g108
I2818
ssV\u5730\u5b66\u7cfb
p307
(dp308
g108
I6
ssV\u822a\u9662
p309
(dp310
g108
I184
ssV\u8f6f\u4ef6\u5b66\u9662
p311
(dp312
g108
I550
ssV\u6c34\u5229\u7cfb
p313
(dp314
g108
I182
ssV\u6cd5\u5b66\u9662
p315
(dp316
g108
I664
ssV\u65b0\u96c5\u4e66\u9662
p317
(dp318
g108
I7
ssV\u751f\u547d\u5b66\u9662
p319
(dp320
g108
I563
ssg50
(dp321
g108
I5
ssg52
(dp322
g108
I6
ssV\u6559\u7814\u9662
p323
(dp324
g108
I166
ssg56
(dp325
g108
I99
ssV\u73af\u5883\u5b66\u9662
p326
(dp327
g108
I90
ssg62
(dp328
g108
I1181
ssV\u6c7d\u8f66\u7cfb
p329
(dp330
g108
I140
ssV\u5316\u5de5\u7cfb
p331
(dp332
g108
I395
ssg206
(dp333
g108
I156
ssV\u6838\u7814\u9662
p334
(dp335
g108
I110
ssg72
(dp336
g108
I399
ssV\u6570\u5b66\u7cfb
p337
(dp338
g108
I56
ssV\u7f8e\u672f\u5b66\u9662
p339
(dp340
g108
I443
ssg275
(dp341
g108
I22
ssg216
(dp342
g108
I11
ssV\u5de5\u7269\u7cfb
p343
(dp344
g108
I185
ssg84
(dp345
g108
I54
ssV\u5efa\u7b51\u5b66\u9662
p346
(dp347
g108
I256
ssg88
(dp348
g108
I121
ssV\u6750\u6599\u5b66\u9662
p349
(dp350
g108
I436
ssV\u793e\u79d1\u5b66\u9662
p351
(dp352
g108
I510
ssg96
(dp353
g108
I39
ssg98
(dp354
g108
I168
sssg22
(dp355
g12
g113
sg14
g125
sV\u6c34\u5229\u7cfb
p356
(dp357
g108
I443
ssg16
g227
sg18
g237
sV\u5de5\u4e1a\u5de5\u7a0b\u7cfb
p358
g352
sg287
(dp359
g108
I837
ssV\u5316\u5b66\u7cfb
p360
(dp361
g108
I222
ssg26
(dp362
g108
I634
ssV\u70ed\u80fd\u7cfb
p363
(dp364
g108
I568
ssg302
(dp365
g108
I388
ssg36
(dp366
g108
I753
ssg32
(dp367
g108
I16
ssg309
(dp368
g108
I424
ssV\u8f6f\u4ef6\u5b66\u9662
p369
(dp370
g108
I605
ssg34
(dp371
g108
I1228
ssg44
(dp372
g108
I618
ssg317
(dp373
g108
I13
ssV\u751f\u547d\u5b66\u9662
p374
(dp375
g108
I778
ssV\u9ad8\u7814\u9662
p376
(dp377
g108
I3
ssV\u6559\u7814\u9662
p378
(dp379
g108
I415
ssg56
(dp380
g108
I415
ssV\u73af\u5883\u5b66\u9662
p381
(dp382
g108
I290
ssg62
(dp383
g108
I1240
ssV\u6c7d\u8f66\u7cfb
p384
(dp385
g108
I168
ssg265
(dp386
g108
I310
ssg267
(dp387
g108
I510
ssV\u6838\u7814\u9662
p388
(dp389
g108
I186
ssg72
(dp390
g108
I1137
ssV\u6570\u5b66\u7cfb
p391
(dp392
g108
I177
ssV\u7f8e\u672f\u5b66\u9662
p393
(dp394
g108
I706
ssV\u9a6c\u514b\u601d\u4e3b\u4e49\u5b66\u9662
p395
(dp396
g108
I232
ssV\u836f\u5b66\u9662
p397
(dp398
g108
I18
ssV\u5de5\u7269\u7cfb
p399
(dp400
g108
I392
ssg84
(dp401
g108
I87
ssg346
(dp402
g108
I729
ssg88
(dp403
g108
I378
ssg90
(dp404
g108
I2
ssV\u6750\u6599\u5b66\u9662
p405
(dp406
g108
I378
ssV\u793e\u79d1\u5b66\u9662
p407
(dp408
g108
I9365
ssV\u5916\u6587\u7cfb
p409
(dp410
g108
I311
ssg98
(dp411
g108
I377
sssg24
(dp412
g14
g126
sg16
g176
sg18
g239
sg358
g297
sV\u65b0\u95fb\u5b66\u9662
p413
(dp414
g108
I211
ssV\u5316\u5b66\u7cfb
p415
(dp416
g108
I7711
ssV\u7535\u5b50\u7cfb
p417
(dp418
g108
I192
ssg300
(dp419
g108
I159
ssg302
(dp420
g108
I174
ssg36
(dp421
g108
I147
ssg307
(dp422
g108
I12
ssg309
(dp423
g108
I205
ssV\u8f6f\u4ef6\u5b66\u9662
p424
(dp425
g108
I104
ssg356
(dp426
g108
I139
ssV\u6cd5\u5b66\u9662
p427
(dp428
g108
I260
ssV\u751f\u547d\u5b66\u9662
p429
(dp430
g108
I663
ssg50
(dp431
g108
I2
ssg52
(dp432
g108
I126
ssV\u6559\u7814\u9662
p433
(dp434
g108
I71
ssV\u516c\u7ba1\u5b66\u9662
p435
(dp436
g108
I115
ssV\u73af\u5883\u5b66\u9662
p437
(dp438
g108
I120
ssg62
(dp439
g108
I347
ssV\u6c7d\u8f66\u7cfb
p440
(dp441
g108
I49
ssg66
(dp442
g108
I665
ssV\u7269\u7406\u7cfb
p443
(dp444
g108
I382
ssV\u6838\u7814\u9662
p445
(dp446
g108
I83
ssg72
(dp447
g108
I323
ssV\u6570\u5b66\u7cfb
p448
(dp449
g108
I102
ssg339
(dp450
g108
I114
ssV\u9a6c\u514b\u601d\u4e3b\u4e49\u5b66\u9662
p451
(dp452
g108
I36
ssV\u836f\u5b66\u9662
p453
(dp454
g108
I46
ssg84
(dp455
g108
I166
ssV\u5de5\u7269\u7cfb
p456
(dp457
g108
I167
ssV\u571f\u6728\u7cfb
p458
(dp459
g108
I330
ssV\u5916\u6587\u7cfb
p460
(dp461
g108
I104
ssg88
(dp462
g108
I183
ssV\u6750\u6599\u5b66\u9662
p463
(dp464
g108
I292
ssg351
g361
sV\u5efa\u7b51\u5b66\u9662
p465
(dp466
g108
I135
ssg98
(dp467
g108
I225
sssg26
(dp468
g14
g127
sg16
g178
sg18
g241
sg358
g299
sV\u65b0\u95fb\u5b66\u9662
p469
(dp470
g108
I264
ssg24
g418
sV\u7535\u5b50\u7cfb
p471
(dp472
g108
I6023
ssV\u70ed\u80fd\u7cfb
p473
(dp474
g108
I618
ssV\u7535\u673a\u7cfb
p475
(dp476
g108
I609
ssg36
(dp477
g108
I454
ssV\u571f\u6728\u7cfb
p478
(dp479
g108
I886
ssV\u5730\u5b66\u7cfb
p480
(dp481
g108
I9
ssV\u822a\u9662
p482
(dp483
g108
I377
ssg188
(dp484
g108
I943
ssg251
(dp485
g108
I271
ssg44
(dp486
g108
I923
ssg46
(dp487
g108
I35
ssV\u751f\u547d\u5b66\u9662
p488
(dp489
g108
I572
ssg50
(dp490
g108
I5
ssg52
(dp491
g108
I67
ssg142
(dp492
g108
I241
ssV\u516c\u7ba1\u5b66\u9662
p493
(dp494
g108
I580
ssV\u73af\u5883\u5b66\u9662
p495
(dp496
g108
I306
ssg62
(dp497
g108
I1316
ssV\u6c7d\u8f66\u7cfb
p498
(dp499
g108
I338
ssV\u5316\u5de5\u7cfb
p500
(dp501
g108
I222
ssV\u7269\u7406\u7cfb
p502
(dp503
g108
I388
ssV\u6838\u7814\u9662
p504
(dp505
g108
I208
ssg72
(dp506
g108
I484
ssV\u6570\u5b66\u7cfb
p507
(dp508
g108
I166
ssV\u7f8e\u672f\u5b66\u9662
p509
(dp510
g108
I413
ssV\u9a6c\u514b\u601d\u4e3b\u4e49\u5b66\u9662
p511
(dp512
g108
I178
ssg397
(dp513
g108
I29
ssV\u5de5\u7269\u7cfb
p514
(dp515
g108
I352
ssg84
(dp516
g108
I87
ssV\u5efa\u7b51\u5b66\u9662
p517
(dp518
g108
I470
ssg88
(dp519
g108
I1055
ssg90
(dp520
g108
I1
ssg224
(dp521
g108
I854
ssg351
g362
sV\u5916\u6587\u7cfb
p522
(dp523
g108
I177
ssg98
(dp524
g108
I425
sssg28
(dp525
g14
g128
sg16
g180
sg18
g243
sg358
g301
sg469
(dp526
g108
I266
ssg24
g419
sV\u7535\u5b50\u7cfb
p527
g474
sV\u70ed\u80fd\u7cfb
p528
(dp529
g108
I2888
ssV\u7535\u673a\u7cfb
p530
(dp531
g108
I271
ssg36
(dp532
g108
I245
ssV\u571f\u6728\u7cfb
p533
(dp534
g108
I545
ssg307
(dp535
g108
I6
ssV\u822a\u9662
p536
(dp537
g108
I225
ssV\u8f6f\u4ef6\u5b66\u9662
p538
(dp539
g108
I159
ssg135
(dp540
g108
I283
ssV\u6cd5\u5b66\u9662
p541
(dp542
g108
I285
ssV\u65b0\u96c5\u4e66\u9662
p543
(dp544
g108
I7
ssV\u751f\u547d\u5b66\u9662
p545
(dp546
g108
I465
ssV\u9ad8\u7814\u9662
p547
(dp548
g108
I5
ssg52
(dp549
g108
I1
ssV\u6559\u7814\u9662
p550
(dp551
g108
I181
ssg493
(dp552
g108
I250
ssg60
(dp553
g108
I200
ssg62
(dp554
g108
I499
ssg498
(dp555
g108
I234
ssg66
(dp556
g108
I347
ssg68
(dp557
g108
I313
ssV\u6838\u7814\u9662
p558
(dp559
g108
I759
ssg72
(dp560
g108
I252
ssV\u6570\u5b66\u7cfb
p561
(dp562
g108
I120
ssV\u7f8e\u672f\u5b66\u9662
p563
(dp564
g108
I199
ssV\u9a6c\u514b\u601d\u4e3b\u4e49\u5b66\u9662
p565
(dp566
g108
I57
ssV\u836f\u5b66\u9662
p567
(dp568
g108
I39
ssg399
(dp569
g108
I433
ssg84
(dp570
g108
I118
ssV\u5efa\u7b51\u5b66\u9662
p571
(dp572
g108
I230
ssg88
(dp573
g108
I310
ssg92
(dp574
g108
I405
ssg351
g364
sg522
(dp575
g108
I58
ssg98
(dp576
g108
I325
sssg30
(dp577
g14
g129
sg16
g181
sg18
g244
sg358
g303
sg413
(dp578
g108
I194
ssg24
g420
sg527
g476
sV\u70ed\u80fd\u7cfb
p579
g531
sg302
(dp580
g108
I1556
ssg36
(dp581
g108
I478
ssg185
(dp582
g108
I5
ssg309
(dp583
g108
I328
ssV\u8f6f\u4ef6\u5b66\u9662
p584
(dp585
g108
I362
ssV\u571f\u6728\u7cfb
p586
(dp587
g108
I432
ssV\u6cd5\u5b66\u9662
p588
(dp589
g108
I232
ssV\u65b0\u96c5\u4e66\u9662
p590
(dp591
g108
I2
ssg545
(dp592
g108
I345
ssV\u9ad8\u7814\u9662
p593
(dp594
g108
I3
ssg550
(dp595
g108
I120
ssV\u516c\u7ba1\u5b66\u9662
p596
(dp597
g108
I221
ssg437
(dp598
g108
I142
ssg62
(dp599
g108
I433
ssg64
(dp600
g108
I94
ssg66
(dp601
g108
I142
ssg206
(dp602
g108
I126
ssV\u6838\u7814\u9662
p603
(dp604
g108
I146
ssg72
(dp605
g108
I337
ssV\u6570\u5b66\u7cfb
p606
(dp607
g108
I61
ssV\u7f8e\u672f\u5b66\u9662
p608
(dp609
g108
I116
ssV\u9a6c\u514b\u601d\u4e3b\u4e49\u5b66\u9662
p610
(dp611
g108
I77
ssV\u836f\u5b66\u9662
p612
(dp613
g108
I18
ssg84
(dp614
g108
I71
ssg399
(dp615
g108
I207
ssV\u6c34\u5229\u7cfb
p616
(dp617
g108
I220
ssg346
(dp618
g108
I437
ssg88
(dp619
g108
I195
ssg405
(dp620
g108
I212
ssg351
g365
sg96
(dp621
g108
I55
ssg98
(dp622
g108
I211
sssg32
(dp623
g14
g132
sg16
g186
sg18
g248
sg358
g308
sV\u65b0\u95fb\u5b66\u9662
p624
(dp625
g108
I1
ssg24
g422
sg527
g481
sg579
g535
sg302
g582
sg36
(dp626
g108
I20
ssV\u571f\u6728\u7cfb
p627
(dp628
g108
I8
ssg480
(dp629
g108
I6
ssV\u822a\u9662
p630
(dp631
g108
I5
ssV\u8f6f\u4ef6\u5b66\u9662
p632
(dp633
g108
I4
ssV\u6c34\u5229\u7cfb
p634
(dp635
g108
I36
ssV\u6cd5\u5b66\u9662
p636
(dp637
g108
I9
ssV\u751f\u547d\u5b66\u9662
p638
(dp639
g108
I21
ssV\u516c\u7ba1\u5b66\u9662
p640
(dp641
g108
I9
ssV\u73af\u5883\u5b66\u9662
p642
(dp643
g108
I2
ssg62
(dp644
g108
I18
ssV\u6c7d\u8f66\u7cfb
p645
(dp646
g108
I8
ssV\u5316\u5de5\u7cfb
p647
(dp648
g108
I6
ssV\u7269\u7406\u7cfb
p649
(dp650
g108
I29
ssV\u6838\u7814\u9662
p651
(dp652
g108
I2
ssg72
(dp653
g108
I10
ssV\u7f8e\u672f\u5b66\u9662
p654
(dp655
g108
I12
ssg395
(dp656
g108
I12
ssg277
(dp657
g108
I4
ssV\u5de5\u7269\u7cfb
p658
(dp659
g108
I5
ssg84
(dp660
g108
I3
ssg88
(dp661
g108
I6
ssg90
(dp662
g108
I2
ssV\u6750\u6599\u5b66\u9662
p663
(dp664
g108
I25
ssg351
g367
sV\u5efa\u7b51\u5b66\u9662
p665
(dp666
g108
I31
ssg98
(dp667
g108
I19
sssg34
(dp668
g14
g131
sg16
g184
sg18
g247
sg358
g306
sg295
(dp669
g108
I1126
ssg24
g459
sg527
g479
sg579
g534
sg302
g587
sg36
(dp670
g108
I590
ssV\u571f\u6728\u7cfb
p671
(dp672
g108
I24440
ssg32
g628
sg309
(dp673
g108
I388
ssV\u8f6f\u4ef6\u5b66\u9662
p674
(dp675
g108
I758
ssV\u6c34\u5229\u7cfb
p676
(dp677
g108
I392
ssg315
(dp678
g108
I911
ssV\u65b0\u96c5\u4e66\u9662
p679
(dp680
g108
I10
ssg319
(dp681
g108
I1218
ssg50
(dp682
g108
I14
ssV\u9a6c\u514b\u601d\u4e3b\u4e49\u5b66\u9662
p683
(dp684
g108
I115
ssg550
(dp685
g108
I408
ssg56
(dp686
g108
I186
ssg60
(dp687
g108
I330
ssg62
(dp688
g108
I2366
ssV\u6c7d\u8f66\u7cfb
p689
(dp690
g108
I188
ssg331
(dp691
g108
I728
ssg206
(dp692
g108
I223
ssg603
(dp693
g108
I375
ssg72
(dp694
g108
I1094
ssV\u6570\u5b66\u7cfb
p695
(dp696
g108
I161
ssV\u7f8e\u672f\u5b66\u9662
p697
(dp698
g108
I809
ssg52
(dp699
g108
I1
ssV\u836f\u5b66\u9662
p700
(dp701
g108
I11
ssg514
(dp702
g108
I503
ssg84
(dp703
g108
I76
ssg571
(dp704
g108
I751
ssg88
(dp705
g108
I656
ssg90
(dp706
g108
I1
ssV\u6750\u6599\u5b66\u9662
p707
(dp708
g108
I901
ssg351
g371
sV\u5916\u6587\u7cfb
p709
(dp710
g108
I187
ssg98
(dp711
g108
I432
sssg36
(dp712
g14
g130
sg16
g182
sg18
g245
sg358
g304
sV\u65b0\u95fb\u5b66\u9662
p713
(dp714
g108
I264
ssg24
g421
sg527
g477
sg579
g532
sg302
g581
sg36
(dp715
g108
I4074
ssg32
g626
sg309
(dp716
g108
I504
ssV\u8f6f\u4ef6\u5b66\u9662
p717
(dp718
g108
I585
ssg135
(dp719
g108
I283
ssV\u6cd5\u5b66\u9662
p720
(dp721
g108
I334
ssg46
(dp722
g108
I3
ssg139
(dp723
g108
I446
ssg50
(dp724
g108
I22
ssg433
(dp725
g108
I279
ssV\u516c\u7ba1\u5b66\u9662
p726
(dp727
g108
I205
ssg60
(dp728
g108
I207
ssg62
(dp729
g108
I553
ssg689
(dp730
g108
I174
ssV\u5316\u5de5\u7cfb
p731
(dp732
g108
I138
ssg68
(dp733
g108
I339
ssV\u6838\u7814\u9662
p734
(dp735
g108
I103
ssg72
(dp736
g108
I313
ssg391
(dp737
g108
I123
ssV\u7f8e\u672f\u5b66\u9662
p738
(dp739
g108
I338
ssg395
(dp740
g108
I213
ssg397
(dp741
g108
I8
ssg84
(dp742
g108
I189
ssg514
(dp743
g108
I272
ssg478
g670
sg346
(dp744
g108
I556
ssg88
(dp745
g108
I172
ssg90
(dp746
g108
I3
ssg349
(dp747
g108
I271
ssg351
g366
sV\u5916\u6587\u7cfb
p748
(dp749
g108
I78
ssg98
(dp750
g108
I359
sssg38
(dp751
g14
g133
sg16
g187
sg18
g249
sg358
g310
sg351
g368
sg24
g423
sg527
g483
sg579
g537
sg302
g583
sg36
g716
sg32
g631
sV\u822a\u9662
p752
(dp753
g108
I2113
ssg538
(dp754
g108
I430
ssg586
g673
sV\u6cd5\u5b66\u9662
p755
(dp756
g108
I220
ssV\u65b0\u96c5\u4e66\u9662
p757
(dp758
g108
I2
ssV\u751f\u547d\u5b66\u9662
p759
(dp760
g108
I404
ssg50
(dp761
g108
I5
ssg550
(dp762
g108
I254
ssg56
(dp763
g108
I129
ssV\u73af\u5883\u5b66\u9662
p764
(dp765
g108
I200
ssg62
(dp766
g108
I288
ssV\u6c7d\u8f66\u7cfb
p767
(dp768
g108
I184
ssV\u5316\u5de5\u7cfb
p769
(dp770
g108
I161
ssV\u7269\u7406\u7cfb
p771
(dp772
g108
I282
ssg388
(dp773
g108
I116
ssg72
(dp774
g108
I330
ssV\u6570\u5b66\u7cfb
p775
(dp776
g108
I173
ssV\u7f8e\u672f\u5b66\u9662
p777
(dp778
g108
I181
ssg275
(dp779
g108
I33
ssg80
(dp780
g108
I8
ssg84
(dp781
g108
I200
ssg456
(dp782
g108
I232
ssV\u6c34\u5229\u7cfb
p783
(dp784
g108
I196
ssg346
(dp785
g108
I351
ssg88
(dp786
g108
I191
ssV\u6750\u6599\u5b66\u9662
p787
(dp788
g108
I165
ssV\u65b0\u95fb\u5b66\u9662
p789
(dp790
g108
I195
ssV\u5916\u6587\u7cfb
p791
(dp792
g108
I72
ssg98
(dp793
g108
I308
sssg40
(dp794
g14
g134
sg16
g189
sg18
g250
sg358
g312
sg287
(dp795
g108
I252
ssg24
g425
sg527
g484
sg579
g539
sg302
g585
sg36
g718
sg32
g633
sg309
g754
sV\u8f6f\u4ef6\u5b66\u9662
p796
(dp797
g108
I7829
ssV\u571f\u6728\u7cfb
p798
g675
sg755
(dp799
g108
I244
ssg194
(dp800
g108
I728
ssg50
(dp801
g108
I10
ssg142
(dp802
g108
I404
ssg726
(dp803
g108
I136
ssg381
(dp804
g108
I339
ssg62
(dp805
g108
I426
ssg689
(dp806
g108
I174
ssV\u5316\u5de5\u7cfb
p807
(dp808
g108
I201
ssV\u7269\u7406\u7cfb
p809
(dp810
g108
I309
ssg334
(dp811
g108
I208
ssg72
(dp812
g108
I614
ssV\u6570\u5b66\u7cfb
p813
(dp814
g108
I77
ssg154
(dp815
g108
I444
ssV\u9a6c\u514b\u601d\u4e3b\u4e49\u5b66\u9662
p816
(dp817
g108
I114
ssg700
(dp818
g108
I9
ssg84
(dp819
g108
I90
ssV\u5de5\u7269\u7cfb
p820
(dp821
g108
I229
ssg190
(dp822
g108
I339
ssV\u5efa\u7b51\u5b66\u9662
p823
(dp824
g108
I958
ssg88
(dp825
g108
I311
ssg405
(dp826
g108
I195
ssg351
g370
sV\u5916\u6587\u7cfb
p827
(dp828
g108
I66
ssg98
(dp829
g108
I377
sssg42
(dp830
g12
g111
sg14
g136
sV\u6c34\u5229\u7cfb
p831
(dp832
g108
I1509
ssg16
g191
sg18
g252
sg358
g314
sg351
g357
sg24
g426
sg527
g485
sg579
g540
sg302
g617
sg36
g719
sg32
g635
sg309
g784
sg674
g822
sV\u571f\u6728\u7cfb
p833
g677
sV\u6cd5\u5b66\u9662
p834
(dp835
g108
I254
ssg317
(dp836
g108
I3
ssV\u751f\u547d\u5b66\u9662
p837
(dp838
g108
I417
ssg547
(dp839
g108
I4
ssV\u6559\u7814\u9662
p840
(dp841
g108
I127
ssg493
(dp842
g108
I129
ssg60
(dp843
g108
I157
ssg62
(dp844
g108
I334
ssg689
(dp845
g108
I139
ssg331
(dp846
g108
I141
ssg68
(dp847
g108
I243
ssg558
(dp848
g108
I86
ssg72
(dp849
g108
I316
ssg775
(dp850
g108
I101
ssg697
(dp851
g108
I154
ssg78
(dp852
g108
I91
ssV\u836f\u5b66\u9662
p853
(dp854
g108
I36
ssg514
(dp855
g108
I264
ssg84
(dp856
g108
I60
ssg517
(dp857
g108
I264
ssg88
(dp858
g108
I164
ssg92
(dp859
g108
I278
ssV\u65b0\u95fb\u5b66\u9662
p860
(dp861
g108
I157
ssV\u5916\u6587\u7cfb
p862
(dp863
g108
I66
ssg98
(dp864
g108
I376
sssg44
(dp865
g14
g137
sg16
g193
sg18
g254
sg358
g316
sV\u65b0\u95fb\u5b66\u9662
p866
(dp867
g108
I757
ssg24
g428
sg527
g486
sg579
g542
sg302
g589
sg36
g721
sg32
g637
sg309
g756
sg674
g799
sg833
g678
sV\u6cd5\u5b66\u9662
p868
(dp869
g108
I4492
ssg543
(dp870
g108
I21
ssg319
(dp871
g108
I741
ssg593
(dp872
g108
I8
ssV\u6559\u7814\u9662
p873
(dp874
g108
I130
ssV\u516c\u7ba1\u5b66\u9662
p875
(dp876
g108
I171
ssV\u73af\u5883\u5b66\u9662
p877
(dp878
g108
I192
ssg62
(dp879
g108
I974
ssg329
(dp880
g108
I104
ssg807
(dp881
g108
I377
ssV\u7269\u7406\u7cfb
p882
(dp883
g108
I200
ssg504
(dp884
g108
I128
ssg72
(dp885
g108
I644
ssV\u6570\u5b66\u7cfb
p886
(dp887
g108
I102
ssg339
(dp888
g108
I496
ssg610
(dp889
g108
I120
ssV\u836f\u5b66\u9662
p890
(dp891
g108
I15
ssg84
(dp892
g108
I52
ssg343
(dp893
g108
I310
ssg251
g835
sg282
(dp894
g108
I324
ssg88
(dp895
g108
I327
ssg90
(dp896
g108
I2
ssg707
(dp897
g108
I458
ssg351
g372
sg460
(dp898
g108
I164
ssg98
(dp899
g108
I280
sssg46
(dp900
g14
g138
sg358
g318
sV\u65b0\u95fb\u5b66\u9662
p901
(dp902
g108
I2
ssg527
g487
sg579
g544
sg302
g591
sg36
g722
sg309
g758
sg833
g680
sg834
g870
sg757
(dp903
g108
I110
ssV\u751f\u547d\u5b66\u9662
p904
(dp905
g108
I8
ssV\u516c\u7ba1\u5b66\u9662
p906
(dp907
g108
I1
ssV\u73af\u5883\u5b66\u9662
p908
(dp909
g108
I7
ssg62
(dp910
g108
I10
ssV\u6c7d\u8f66\u7cfb
p911
(dp912
g108
I25
ssg500
(dp913
g108
I1
ssV\u6838\u7814\u9662
p914
(dp915
g108
I4
ssg72
(dp916
g108
I17
ssV\u6570\u5b66\u7cfb
p917
(dp918
g108
I8
ssV\u5de5\u7269\u7cfb
p919
(dp920
g108
I3
ssV\u6c34\u5229\u7cfb
p921
g836
sV\u5efa\u7b51\u5b66\u9662
p922
(dp923
g108
I32
ssg88
(dp924
g108
I3
ssV\u6750\u6599\u5b66\u9662
p925
(dp926
g108
I7
ssg351
g373
sV\u5916\u6587\u7cfb
p927
(dp928
g108
I5
ssg98
(dp929
g108
I4
sssg48
(dp930
g12
g114
sg14
g140
sg16
g195
sg18
g255
sg358
g320
sg351
g375
sg24
g430
sg527
g489
sg579
g546
sg302
g592
sg36
g723
sg32
g639
sg309
g760
sg674
g800
sg833
g681
sg834
g871
sg317
g905
sV\u751f\u547d\u5b66\u9662
p931
(dp932
g108
I4202
ssg593
(dp933
g108
I9
ssg323
(dp934
g108
I316
ssg56
(dp935
g108
I262
ssg200
(dp936
g108
I316
ssg62
(dp937
g108
I919
ssg329
(dp938
g108
I180
ssg807
(dp939
g108
I516
ssV\u7269\u7406\u7cfb
p940
(dp941
g108
I477
ssV\u6838\u7814\u9662
p942
(dp943
g108
I254
ssg72
(dp944
g108
I712
ssg507
(dp945
g108
I191
ssV\u7f8e\u672f\u5b66\u9662
p946
(dp947
g108
I690
ssV\u9a6c\u514b\u601d\u4e3b\u4e49\u5b66\u9662
p948
(dp949
g108
I230
ssg853
(dp950
g108
I95
ssg84
(dp951
g108
I179
ssg343
(dp952
g108
I422
ssg616
g838
sV\u5efa\u7b51\u5b66\u9662
p953
(dp954
g108
I414
ssg88
(dp955
g108
I2029
ssV\u6750\u6599\u5b66\u9662
p956
(dp957
g108
I542
ssV\u65b0\u95fb\u5b66\u9662
p958
(dp959
g108
I353
ssg862
(dp960
g108
I106
ssg98
(dp961
g108
I387
sssg50
(dp962
g14
g145
sg16
g197
sg18
g260
sg358
g321
sg287
(dp963
g108
I4
ssg24
g431
sg527
g490
sg579
g548
sg302
g594
sg36
g724
sg309
g761
sg674
g801
sg833
g682
sg834
g872
sg837
g933
sg50
(dp964
g108
I9
ssV\u6559\u7814\u9662
p965
(dp966
g108
I10
ssV\u516c\u7ba1\u5b66\u9662
p967
(dp968
g108
I5
ssV\u73af\u5883\u5b66\u9662
p969
(dp970
g108
I7
ssg62
(dp971
g108
I14
ssV\u6c7d\u8f66\u7cfb
p972
(dp973
g108
I3
ssV\u5316\u5de5\u7cfb
p974
(dp975
g108
I2
ssV\u7269\u7406\u7cfb
p976
(dp977
g108
I13
ssV\u6838\u7814\u9662
p978
(dp979
g108
I6
ssg72
(dp980
g108
I21
ssg561
(dp981
g108
I8
ssV\u7f8e\u672f\u5b66\u9662
p982
(dp983
g108
I8
ssV\u9a6c\u514b\u601d\u4e3b\u4e49\u5b66\u9662
p984
(dp985
g108
I2
ssg84
(dp986
g108
I2
ssV\u5de5\u7269\u7cfb
p987
(dp988
g108
I8
ssV\u6c34\u5229\u7cfb
p989
g839
sg86
(dp990
g108
I16
ssg88
(dp991
g108
I5
ssV\u6750\u6599\u5b66\u9662
p992
(dp993
g108
I3
ssg351
g377
sV\u5916\u6587\u7cfb
p994
(dp995
g108
I1
ssg98
(dp996
g108
I21
sssg52
(dp997
V\u5de5\u4e1a\u5de5\u7a0b\u7cfb
p998
g322
sV\u571f\u6728\u7cfb
p999
g699
sV\u5316\u5de5\u7cfb
p1000
(dp1001
g108
I11
ssV\u7f8e\u672f\u5b66\u9662
p1002
(dp1003
g108
I7
ssV\u6750\u6599\u5b66\u9662
p1004
(dp1005
g108
I13
ssV\u5316\u5b66\u7cfb
p1006
g432
sV\u7535\u5b50\u7cfb
p1007
g491
sg473
g549
sV\u516c\u7ba1\u5b66\u9662
p1008
(dp1009
g108
I2
sssg54
(dp1010
g12
g115
sg14
g143
sg16
g198
sg18
g258
sg358
g324
sg351
g379
sg24
g434
sg527
g492
sg579
g551
sg302
g595
sg36
g725
sg309
g762
sg674
g802
sg833
g685
sg834
g874
sg837
g934
sg547
g966
sV\u6559\u7814\u9662
p1011
(dp1012
g108
I2740
ssg56
(dp1013
g108
I146
ssV\u73af\u5883\u5b66\u9662
p1014
(dp1015
g108
I146
ssg62
(dp1016
g108
I387
ssg64
(dp1017
g108
I43
ssg807
(dp1018
g108
I122
ssg206
(dp1019
g108
I101
ssg504
(dp1020
g108
I109
ssg72
(dp1021
g108
I404
ssg391
(dp1022
g108
I43
ssg777
(dp1023
g108
I179
ssg78
(dp1024
g108
I69
ssV\u836f\u5b66\u9662
p1025
(dp1026
g108
I1
ssg84
(dp1027
g108
I42
ssg399
(dp1028
g108
I168
ssg190
g841
sg571
(dp1029
g108
I301
ssg88
(dp1030
g108
I126
ssg224
(dp1031
g108
I125
ssV\u65b0\u95fb\u5b66\u9662
p1032
(dp1033
g108
I175
ssV\u5916\u6587\u7cfb
p1034
(dp1035
g108
I63
ssg98
(dp1036
g108
I258
sssg56
(dp1037
g14
g144
sg16
g199
sg18
g259
sg358
g325
sg469
(dp1038
g108
I118
ssg24
g436
sg527
g494
sg579
g552
sg302
g597
sg36
g727
sg32
g641
sg309
g763
sg674
g803
sg833
g686
sg834
g876
sg317
g907
sg837
g935
sg547
g968
sg52
g1009
sg840
g1013
sV\u516c\u7ba1\u5b66\u9662
p1039
(dp1040
g108
I1710
ssV\u73af\u5883\u5b66\u9662
p1041
(dp1042
g108
I123
ssg62
(dp1043
g108
I331
ssg498
(dp1044
g108
I186
ssV\u5316\u5de5\u7cfb
p1045
(dp1046
g108
I105
ssg206
(dp1047
g108
I76
ssg70
(dp1048
g108
I173
ssg72
(dp1049
g108
I285
ssV\u6570\u5b66\u7cfb
p1050
(dp1051
g108
I35
ssV\u7f8e\u672f\u5b66\u9662
p1052
(dp1053
g108
I140
ssg78
(dp1054
g108
I120
ssg1025
(dp1055
g108
I7
ssg84
(dp1056
g108
I30
ssV\u5de5\u7269\u7cfb
p1057
(dp1058
g108
I115
ssV\u6c34\u5229\u7cfb
p1059
g842
sV\u5efa\u7b51\u5b66\u9662
p1060
(dp1061
g108
I186
ssg88
(dp1062
g108
I88
ssg90
(dp1063
g108
I2
ssg663
(dp1064
g108
I122
ssg351
g380
sV\u5916\u6587\u7cfb
p1065
(dp1066
g108
I27
ssg98
(dp1067
g108
I105
sssg58
(dp1068
g18
g256
sg14
g141
ssg60
(dp1069
g14
g146
sg16
g201
sg18
g262
sg358
g327
sg1032
(dp1070
g108
I138
ssg24
g438
sg527
g496
sg579
g553
sg302
g598
sg36
g728
sg32
g643
sg309
g765
sg674
g804
sg833
g687
sg834
g878
sg317
g909
sg837
g936
sg547
g970
sg840
g1015
sg493
g1042
sg877
(dp1071
g108
I1437
ssg62
(dp1072
g108
I300
ssg64
(dp1073
g108
I73
ssg500
(dp1074
g108
I157
ssg68
(dp1075
g108
I107
ssg388
(dp1076
g108
I210
ssg72
(dp1077
g108
I213
ssV\u6570\u5b66\u7cfb
p1078
(dp1079
g108
I50
ssg946
(dp1080
g108
I193
ssg78
(dp1081
g108
I45
ssg397
(dp1082
g108
I19
ssg84
(dp1083
g108
I33
ssV\u5de5\u7269\u7cfb
p1084
(dp1085
g108
I230
ssg135
g843
sV\u5efa\u7b51\u5b66\u9662
p1086
(dp1087
g108
I228
ssg88
(dp1088
g108
I146
ssg92
(dp1089
g108
I154
ssg351
g382
sg862
(dp1090
g108
I135
ssg98
(dp1091
g108
I274
sssg62
(dp1092
g12
g109
sg14
g147
sg676
g844
sg16
g202
sg18
g263
sg358
g328
sg351
g383
sg24
g439
sg527
g497
sg579
g554
sg302
g599
sg36
g729
sg32
g644
sg309
g766
sg674
g805
sg833
g688
sg834
g879
sg317
g910
sg837
g937
sg547
g971
sg840
g1016
sg493
g1043
sg60
g1072
sg62
(dp1093
g108
I6044
ssV\u6c7d\u8f66\u7cfb
p1094
(dp1095
g108
I253
ssg807
(dp1096
g108
I585
ssV\u7269\u7406\u7cfb
p1097
(dp1098
g108
I280
ssg603
(dp1099
g108
I200
ssg72
(dp1100
g108
I807
ssg391
(dp1101
g108
I169
ssg273
(dp1102
g108
I621
ssg78
(dp1103
g108
I301
ssg216
(dp1104
g108
I24
ssg514
(dp1105
g108
I381
ssg84
(dp1106
g108
I131
ssg282
(dp1107
g108
I529
ssg88
(dp1108
g108
I593
ssg90
(dp1109
g108
I3
ssV\u6750\u6599\u5b66\u9662
p1110
(dp1111
g108
I622
ssg866
(dp1112
g108
I709
ssg96
(dp1113
g108
I163
ssg98
(dp1114
g108
I395
sssg64
(dp1115
g14
g148
sg16
g203
sg18
g264
sg358
g330
sg351
g385
sg24
g441
sg527
g499
sg579
g555
sg302
g600
sg36
g730
sg32
g646
sg309
g768
sg674
g806
sg833
g690
sg834
g880
sg317
g912
sg697
(dp1116
g108
I115
ssg837
g938
sg547
g973
sg840
g1017
sg493
g1044
sg60
g1073
sg62
g1095
sV\u6c7d\u8f66\u7cfb
p1117
(dp1118
g108
I3333
ssg769
(dp1119
g108
I56
ssg771
(dp1120
g108
I115
ssg70
(dp1121
g108
I62
ssg72
(dp1122
g108
I142
ssg391
(dp1123
g108
I32
ssV\u6c34\u5229\u7cfb
p1124
g845
sg78
(dp1125
g108
I29
ssg567
(dp1126
g108
I6
ssV\u5de5\u7269\u7cfb
p1127
(dp1128
g108
I129
ssg84
(dp1129
g108
I46
ssV\u5efa\u7b51\u5b66\u9662
p1130
(dp1131
g108
I104
ssg88
(dp1132
g108
I210
ssV\u6750\u6599\u5b66\u9662
p1133
(dp1134
g108
I121
ssg469
(dp1135
g108
I105
ssV\u5916\u6587\u7cfb
p1136
(dp1137
g108
I49
ssg98
(dp1138
g108
I155
sssg66
(dp1139
g14
g149
sV\u6c34\u5229\u7cfb
p1140
g846
sg16
g205
sg18
g266
sg358
g332
sg351
g386
sg24
g442
sg527
g501
sg579
g556
sg302
g601
sg36
g732
sg32
g648
sg309
g770
sg674
g808
sg833
g691
sg834
g881
sg317
g913
sg837
g939
sg547
g975
sg52
g1001
sg840
g1018
sg493
g1046
sg60
g1074
sg62
g1096
sg689
g1119
sV\u5316\u5de5\u7cfb
p1141
(dp1142
g108
I1861
ssg267
(dp1143
g108
I131
ssg603
(dp1144
g108
I124
ssg72
(dp1145
g108
I547
ssV\u6570\u5b66\u7cfb
p1146
(dp1147
g108
I80
ssg154
(dp1148
g108
I248
ssg78
(dp1149
g108
I109
ssg612
(dp1150
g108
I12
ssV\u5de5\u7269\u7cfb
p1151
(dp1152
g108
I312
ssg84
(dp1153
g108
I42
ssV\u5efa\u7b51\u5b66\u9662
p1154
(dp1155
g108
I235
ssg88
(dp1156
g108
I168
ssV\u6750\u6599\u5b66\u9662
p1157
(dp1158
g108
I238
ssg295
(dp1159
g108
I299
ssV\u5916\u6587\u7cfb
p1160
(dp1161
g108
I81
ssg98
(dp1162
g108
I238
sssg68
(dp1163
g14
g150
sg16
g207
sg18
g268
sg358
g333
sg351
g387
sg24
g444
sg527
g503
sg579
g557
sg302
g602
sg36
g733
sg32
g650
sg309
g772
sg674
g810
sg833
g692
sg834
g883
sg837
g941
sg547
g977
sg840
g1019
sg493
g1047
sg60
g1075
sg62
g1098
sg689
g1120
sg331
g1143
sV\u7269\u7406\u7cfb
p1164
(dp1165
g108
I2498
ssg70
(dp1166
g108
I96
ssg72
(dp1167
g108
I410
ssg561
(dp1168
g108
I227
ssV\u7f8e\u672f\u5b66\u9662
p1169
(dp1170
g108
I152
ssg78
(dp1171
g108
I125
ssg397
(dp1172
g108
I33
ssg84
(dp1173
g108
I183
ssV\u5de5\u7269\u7cfb
p1174
(dp1175
g108
I314
ssg135
g847
sV\u5efa\u7b51\u5b66\u9662
p1176
(dp1177
g108
I192
ssg88
(dp1178
g108
I171
ssg92
(dp1179
g108
I376
ssV\u65b0\u95fb\u5b66\u9662
p1180
(dp1181
g108
I104
ssg791
(dp1182
g108
I103
ssg98
(dp1183
g108
I309
sssg70
(dp1184
g14
g151
sg16
g208
sg18
g269
sg358
g335
sg351
g389
sg24
g446
sg527
g505
sg579
g559
sg302
g604
sg36
g735
sg32
g652
sg309
g773
sg674
g811
sg833
g693
sg834
g884
sg317
g915
sg837
g943
sg547
g979
sg840
g1020
sg493
g1048
sg60
g1076
sg62
g1099
sg689
g1121
sg331
g1144
sg68
g1166
sg558
(dp1185
g108
I4676
ssg72
(dp1186
g108
I167
ssg606
(dp1187
g108
I20
ssg697
(dp1188
g108
I216
ssg78
(dp1189
g108
I23
ssV\u836f\u5b66\u9662
p1190
(dp1191
g108
I7
ssg84
(dp1192
g108
I34
ssg399
(dp1193
g108
I292
ssg616
g848
sg571
(dp1194
g108
I139
ssg88
(dp1195
g108
I183
ssg405
(dp1196
g108
I87
ssV\u65b0\u95fb\u5b66\u9662
p1197
(dp1198
g108
I86
ssg96
(dp1199
g108
I30
ssg98
(dp1200
g108
I94
sssg72
(dp1201
g14
g152
sg16
g209
sg18
g270
sg358
g336
sg351
g390
sg24
g447
sg527
g506
sg579
g560
sg302
g605
sg36
g736
sg32
g653
sg309
g774
sg674
g812
sg833
g694
sg834
g885
sg317
g916
sg837
g944
sg547
g980
sg840
g1021
sg493
g1049
sg60
g1077
sg62
g1100
sg689
g1122
sg331
g1145
sg68
g1167
sg558
g1186
sg72
(dp1202
g108
I6660
ssg391
(dp1203
g108
I333
ssg946
(dp1204
g108
I566
ssg78
(dp1205
g108
I241
ssg700
(dp1206
g108
I27
ssg84
(dp1207
g108
I139
ssg1084
(dp1208
g108
I547
ssg190
g849
sV\u5efa\u7b51\u5b66\u9662
p1209
(dp1210
g108
I564
ssg88
(dp1211
g108
I276
ssg349
(dp1212
g108
I564
ssg295
(dp1213
g108
I669
ssg862
(dp1214
g108
I468
ssg98
(dp1215
g108
I373
sssg74
(dp1216
g14
g153
sg16
g211
sg18
g272
sg358
g338
sg351
g392
sg24
g449
sg527
g508
sg579
g562
sg302
g607
sg36
g737
sg309
g776
sg674
g814
sg833
g696
sg834
g887
sg317
g918
sg837
g945
sg547
g981
sg840
g1022
sg493
g1051
sg60
g1079
sg62
g1101
sg689
g1123
sg331
g1147
sg68
g1168
sg558
g1187
sg72
g1203
sg775
(dp1217
g108
I610
ssg1052
(dp1218
g108
I88
ssg78
(dp1219
g108
I47
ssg890
(dp1220
g108
I18
ssg84
(dp1221
g108
I196
ssV\u5de5\u7269\u7cfb
p1222
(dp1223
g108
I138
ssg1124
g850
sV\u5efa\u7b51\u5b66\u9662
p1224
(dp1225
g108
I134
ssg88
(dp1226
g108
I83
ssV\u6750\u6599\u5b66\u9662
p1227
(dp1228
g108
I113
ssV\u65b0\u95fb\u5b66\u9662
p1229
(dp1230
g108
I75
ssV\u5916\u6587\u7cfb
p1231
(dp1232
g108
I69
ssg98
(dp1233
g108
I162
sssg76
(dp1234
g12
g116
sg14
g155
sg16
g213
sg18
g274
sg358
g340
sg351
g394
sg24
g450
sg527
g510
sg579
g564
sg302
g609
sg36
g739
sg32
g655
sg309
g778
sg674
g815
sg833
g698
sg834
g888
sg837
g947
sg547
g983
sg52
g1003
sg840
g1023
sg493
g1053
sg60
g1080
sg62
g1102
sg689
g1116
sg331
g1148
sg68
g1170
sg558
g1188
sg72
g1204
sg775
g1218
sg738
(dp1235
g108
I2408
ssg78
(dp1236
g108
I74
ssV\u836f\u5b66\u9662
p1237
(dp1238
g108
I11
ssg84
(dp1239
g108
I32
ssg279
(dp1240
g108
I285
ssV\u6c34\u5229\u7cfb
p1241
g851
sg282
(dp1242
g108
I606
ssg88
(dp1243
g108
I208
ssg90
(dp1244
g108
I5
ssg349
(dp1245
g108
I276
ssg713
(dp1246
g108
I418
ssg862
(dp1247
g108
I78
ssg98
(dp1248
g108
I253
sssg78
(dp1249
g14
g156
sV\u6c34\u5229\u7cfb
p1250
g852
sg16
g215
sg18
g276
sg358
g341
sV\u65b0\u95fb\u5b66\u9662
p1251
(dp1252
g108
I82
ssg24
g452
sg527
g512
sg579
g566
sg302
g611
sg36
g740
sg32
g656
sg309
g779
sg674
g817
sg833
g684
sg834
g889
sg837
g949
sg547
g985
sV\u6559\u7814\u9662
p1253
g1024
sg596
g1054
sV\u73af\u5883\u5b66\u9662
p1254
g1081
sg62
g1103
sg645
g1125
sV\u5316\u5de5\u7cfb
p1255
g1149
sg649
g1171
sV\u6838\u7814\u9662
p1256
g1189
sg72
g1205
sV\u6570\u5b66\u7cfb
p1257
g1219
sV\u7f8e\u672f\u5b66\u9662
p1258
g1236
sg78
(dp1259
g108
I2473
ssV\u836f\u5b66\u9662
p1260
(dp1261
g108
I18
ssV\u5de5\u7269\u7cfb
p1262
(dp1263
g108
I166
ssg84
(dp1264
g108
I18
ssV\u5efa\u7b51\u5b66\u9662
p1265
(dp1266
g108
I152
ssg88
(dp1267
g108
I54
ssg663
(dp1268
g108
I103
ssg351
g396
sV\u5916\u6587\u7cfb
p1269
(dp1270
g108
I25
ssg98
(dp1271
g108
I161
sssg80
(dp1272
g14
g157
sg16
g217
sg18
g278
sg358
g342
sg351
g398
sg24
g454
sg527
g513
sg579
g568
sg302
g613
sg36
g741
sg32
g657
sg309
g780
sg674
g818
sg833
g701
sg834
g891
sg837
g950
sg840
g1026
sg493
g1055
sg60
g1082
sg62
g1104
sg689
g1126
sg331
g1150
sg68
g1172
sg558
g1191
sg72
g1206
sg775
g1220
sg697
g1238
sg78
g1261
sg853
(dp1273
g108
I13
ssg84
(dp1274
g108
I4
ssV\u5de5\u7269\u7cfb
p1275
(dp1276
g108
I27
ssV\u6c34\u5229\u7cfb
p1277
g854
sg953
(dp1278
g108
I19
ssg88
(dp1279
g108
I84
ssV\u6750\u6599\u5b66\u9662
p1280
(dp1281
g108
I31
ssV\u65b0\u95fb\u5b66\u9662
p1282
(dp1283
g108
I2
ssg862
(dp1284
g108
I2
ssg98
(dp1285
g108
I29
sssg82
(dp1286
g12
g110
sg14
g159
sg1124
g855
sg16
g219
sg18
g280
sg358
g344
sg351
g400
sg24
g457
sg527
g515
sg579
g569
sg302
g615
sg36
g743
sg32
g659
sg309
g782
sg674
g821
sg833
g702
sg834
g893
sg317
g920
sg837
g952
sg547
g988
sg840
g1028
sg493
g1058
sg60
g1085
sg62
g1105
sg689
g1128
sg331
g1152
sg68
g1175
sg558
g1193
sg72
g1208
sg775
g1223
sg697
g1240
sg78
g1263
sg853
g1276
sg399
(dp1287
g108
I1489
ssg84
(dp1288
g108
I50
ssg282
(dp1289
g108
I264
ssg88
(dp1290
g108
I237
ssg405
(dp1291
g108
I279
ssg94
(dp1292
g108
I186
ssg862
(dp1293
g108
I94
ssg98
(dp1294
g108
I265
sssg84
(dp1295
g14
g160
sg16
g220
sg18
g281
sg358
g345
sg351
g401
sg24
g455
sg527
g516
sg579
g570
sg302
g614
sg36
g742
sg32
g660
sg309
g781
sg674
g819
sg833
g703
sg834
g892
sg837
g951
sg547
g986
sg840
g1027
sg493
g1056
sg60
g1083
sg62
g1106
sg689
g1129
sg331
g1153
sg68
g1173
sg558
g1192
sg72
g1207
sg775
g1221
sg697
g1239
sg78
g1264
sg853
g1274
sg84
(dp1296
g108
I437
ssg279
g1288
sV\u6c34\u5229\u7cfb
p1297
g856
sV\u5efa\u7b51\u5b66\u9662
p1298
(dp1299
g108
I66
ssg88
(dp1300
g108
I40
ssg956
(dp1301
g108
I69
ssV\u65b0\u95fb\u5b66\u9662
p1302
(dp1303
g108
I68
ssg862
(dp1304
g108
I43
ssg98
(dp1305
g108
I79
sssg86
(dp1306
g14
g161
sg135
g857
sg16
g221
sg18
g283
sg358
g347
sg351
g402
sg24
g466
sg527
g518
sg579
g572
sg302
g618
sg36
g744
sg32
g666
sg309
g785
sg674
g824
sg833
g704
sg834
g894
sg317
g923
sg837
g954
sg547
g990
sg840
g1029
sg493
g1061
sg60
g1087
sg62
g1107
sg689
g1131
sg331
g1155
sg68
g1177
sg558
g1194
sg72
g1210
sg775
g1225
sg697
g1242
sg78
g1266
sg853
g1278
sg514
g1289
sg84
g1299
sV\u5efa\u7b51\u5b66\u9662
p1307
(dp1308
g108
I2997
ssg88
(dp1309
g108
I227
ssg90
(dp1310
g108
I15
ssg349
(dp1311
g108
I192
ssg866
(dp1312
g108
I229
ssg862
(dp1313
g108
I103
ssg98
(dp1314
g108
I278
sssg88
(dp1315
g14
g162
sg135
g858
sg16
g222
sg18
g284
sg358
g348
sg351
g403
sg24
g462
sg527
g519
sg579
g573
sg302
g619
sg36
g745
sg32
g661
sg309
g786
sg674
g825
sg833
g705
sg834
g895
sg317
g924
sg837
g955
sg547
g991
sg840
g1030
sg493
g1062
sg60
g1088
sg62
g1108
sg689
g1132
sg331
g1156
sg68
g1178
sg558
g1195
sg72
g1211
sg775
g1226
sg697
g1243
sg78
g1267
sg853
g1279
sg514
g1290
sg84
g1300
sg953
g1309
sg88
(dp1316
g108
I7688
ssg405
(dp1317
g108
I254
ssg958
(dp1318
g108
I132
ssg862
(dp1319
g108
I52
ssg98
(dp1320
g108
I255
sssg90
(dp1321
g697
g1244
sg14
g163
sg16
g223
sg833
g706
sg834
g896
sg62
g1109
sg493
g1063
sg351
g404
sg527
g520
sV\u5efa\u7b51\u5b66\u9662
p1322
g1310
sg36
g746
sg32
g662
ssg92
(dp1323
g14
g164
sg135
g859
sg16
g225
sg18
g286
sg358
g350
sg351
g406
sg24
g464
sg527
g521
sg579
g574
sg302
g620
sg36
g747
sg32
g664
sg309
g788
sg674
g826
sg833
g708
sg834
g897
sg317
g926
sg837
g957
sg547
g993
sg52
g1005
sg840
g1031
sg493
g1064
sg60
g1089
sg62
g1111
sg689
g1134
sg331
g1158
sg68
g1179
sg558
g1196
sg72
g1212
sg775
g1228
sg697
g1245
sg78
g1268
sg853
g1281
sg514
g1291
sg84
g1301
sg571
g1311
sg88
g1317
sV\u6750\u6599\u5b66\u9662
p1324
(dp1325
g108
I1924
ssg713
(dp1326
g108
I303
ssg862
(dp1327
g108
I56
ssg98
(dp1328
g108
I322
sssg94
(dp1329
g14
g165
sg135
g861
sg16
g174
sg18
g288
sg358
g296
sg351
g359
sg24
g414
sg527
g470
sg579
g526
sg302
g578
sg36
g714
sV\u65b0\u95fb\u5b66\u9662
p1330
(dp1331
g108
I2963
ssg32
g625
sg309
g790
sg674
g795
sg833
g669
sg834
g867
sg317
g902
sg837
g959
sg547
g963
sg840
g1033
sg493
g1038
sg60
g1070
sg62
g1112
sg689
g1135
sg331
g1159
sg68
g1181
sg558
g1198
sg72
g1213
sg775
g1230
sg697
g1246
sg78
g1252
sg853
g1283
sg514
g1292
sg84
g1303
sg88
g1318
sg349
g1326
sV\u5efa\u7b51\u5b66\u9662
p1332
g1312
sg862
(dp1333
g108
I137
ssg98
(dp1334
g108
I161
sssg96
(dp1335
g14
g166
sg16
g229
sg18
g290
sg358
g353
sg351
g410
sg24
g461
sg527
g523
sg579
g575
sg302
g621
sg36
g749
sg309
g792
sg674
g828
sg833
g710
sg834
g898
sg317
g928
sg837
g960
sg547
g995
sg840
g1035
sg493
g1066
sg60
g1090
sg62
g1113
sg689
g1137
sg331
g1161
sg68
g1182
sg558
g1199
sg72
g1214
sg775
g1232
sg697
g1247
sg78
g1270
sV\u836f\u5b66\u9662
p1336
g1284
sg84
g1304
sg279
g1293
sg356
g863
sg1332
g1313
sg88
g1319
sV\u6750\u6599\u5b66\u9662
p1337
g1327
sV\u65b0\u95fb\u5b66\u9662
p1338
g1333
sV\u5916\u6587\u7cfb
p1339
(dp1340
g108
I1019
ssg98
(dp1341
g108
I113
sssg98
(dp1342
g14
g167
sg135
g864
sg16
g230
sg18
g291
sg358
g354
sg351
g411
sg24
g467
sg527
g524
sg579
g576
sg302
g622
sg36
g750
sg32
g667
sg309
g793
sg674
g829
sg833
g711
sg834
g899
sg317
g929
sg837
g961
sg547
g996
sg840
g1036
sg493
g1067
sg60
g1091
sg62
g1114
sg689
g1138
sg331
g1162
sg68
g1183
sg558
g1200
sg72
g1215
sg775
g1233
sg697
g1248
sg78
g1271
sg853
g1285
sg514
g1294
sg84
g1305
sg346
g1314
sg88
g1320
sg349
g1328
sg866
g1334
sg862
g1341
sg98
(dp1343
g108
I1579
ssssS'adjlist_outer_dict_factory'
p1344
g7
sb.