ccopy_reg
_reconstructor
p0
(cnetworkx.classes.graph
Graph
p1
c__builtin__
object
p2
Ntp3
Rp4
(dp5
S'adjlist_inner_dict_factory'
p6
c__builtin__
dict
p7
sS'node_dict_factory'
p8
g7
sS'edge_attr_dict_factory'
p9
g7
sS'_node'
p10
(dp11
V\u5168\u7403\u521b\u65b0\u5b66\u9662
p12
(dp13
sV\u81ea\u52a8\u5316\u7cfb
p14
(dp15
sS'\xe5\xbe\xae\xe7\xba\xb3\xe7\x94\xb5\xe5\xad\x90\xe7\xb3\xbb'
p16
(dp17
sV\u7cbe\u4eea\u7cfb
p18
(dp19
sV\u5de5\u4e1a\u5de5\u7a0b\u7cfb
p20
(dp21
sV\u793e\u79d1\u5b66\u9662
p22
(dp23
sV\u5316\u5b66\u7cfb
p24
(dp25
sV\u7535\u5b50\u7cfb
p26
(dp27
sV\u70ed\u80fd\u7cfb
p28
(dp29
sV\u7535\u673a\u7cfb
p30
(dp31
sV\u5730\u5b66\u7cfb
p32
(dp33
sV\u571f\u6728\u7cfb
p34
(dp35
sS'\xe8\xae\xa1\xe7\xae\x97\xe6\x9c\xba\xe7\xb3\xbb'
p36
(dp37
sV\u822a\u9662
p38
(dp39
sV\u8f6f\u4ef6\u5b66\u9662
p40
(dp41
sV\u6c34\u5229\u7cfb
p42
(dp43
sV\u6cd5\u5b66\u9662
p44
(dp45
sV\u65b0\u96c5\u4e66\u9662
p46
(dp47
sV\u751f\u547d\u5b66\u9662
p48
(dp49
sV\u9ad8\u7814\u9662
p50
(dp51
sV\u6e05\u534e-\u4f2f\u514b\u5229\u6df1\u5733\u5b66\u9662
p52
(dp53
sV\u6559\u7814\u9662
p54
(dp55
sV\u516c\u7ba1\u5b66\u9662
p56
(dp57
sV\u82cf\u4e16\u6c11\u4e66\u9662
p58
(dp59
sV\u73af\u5883\u5b66\u9662
p60
(dp61
sS'\xe7\xbb\x8f\xe7\xae\xa1\xe5\xad\xa6\xe9\x99\xa2'
p62
(dp63
sV\u6c7d\u8f66\u7cfb
p64
(dp65
sV\u5316\u5de5\u7cfb
p66
(dp67
sV\u7269\u7406\u7cfb
p68
(dp69
sV\u6838\u7814\u9662
p70
(dp71
sS'\xe4\xba\xba\xe6\x96\x87\xe5\xad\xa6\xe9\x99\xa2'
p72
(dp73
sV\u6570\u5b66\u7cfb
p74
(dp75
sV\u7f8e\u672f\u5b66\u9662
p76
(dp77
sV\u9a6c\u514b\u601d\u4e3b\u4e49\u5b66\u9662
p78
(dp79
sV\u836f\u5b66\u9662
p80
(dp81
sV\u5de5\u7269\u7cfb
p82
(dp83
sS'\xe4\xba\xa4\xe5\x8f\x89\xe4\xbf\xa1\xe6\x81\xaf\xe7\xa0\x94\xe7\xa9\xb6\xe9\x99\xa2'
p84
(dp85
sV\u5efa\u7b51\u5b66\u9662
p86
(dp87
sS'\xe5\x8c\xbb\xe5\xad\xa6\xe9\x99\xa2'
p88
(dp89
sV\u8bbe\u8ba1\u9662
p90
(dp91
sV\u6750\u6599\u5b66\u9662
p92
(dp93
sV\u65b0\u95fb\u5b66\u9662
p94
(dp95
sV\u5916\u6587\u7cfb
p96
(dp97
sS'\xe6\x9c\xba\xe6\xa2\xb0\xe5\xad\xa6\xe9\x99\xa2'
p98
(dp99
ssS'graph'
p100
(dp101
sS'root_graph'
p102
g4
sS'_adj'
p103
(dp104
g12
(dp105
V\u5168\u7403\u521b\u65b0\u5b66\u9662
p106
(dp107
S'weight'
p108
F3.142857142857143
ssg62
(dp109
g108
F0.2874399112535437
ssg82
(dp110
g108
F0.28927300457549565
ssg42
(dp111
g108
F0.14504054897067997
ssg20
(dp112
g108
F0.29066478076379065
ssg22
(dp113
g108
F0.28829160530191456
ssg48
(dp114
g108
F0.2879973907371167
ssg54
(dp115
g108
F0.14877430262045646
ssg76
(dp116
g108
F0.5772765246449456
sssg14
(dp117
V\u81ea\u52a8\u5316\u7cfb
p118
(dp119
g108
F11.444241316270567
ssg16
(dp120
g108
F0.6595889958370961
ssg18
(dp121
g108
F1.6774188613433485
ssV\u5de5\u4e1a\u5de5\u7a0b\u7cfb
p122
(dp123
g108
F2.229161764439698
ssV\u793e\u79d1\u5b66\u9662
p124
(dp125
g108
F1.321528864094687
ssg24
(dp126
g108
F0.4959767516528736
ssg26
(dp127
g108
F3.3489411943936624
ssg28
(dp128
g108
F2.1136502132845827
ssg30
(dp129
g108
F1.7677758055163317
ssg36
(dp130
g108
F1.8390595451645482
ssg34
(dp131
g108
F6.328157777234855
ssg32
(dp132
g108
F0.36245131547571735
ssg38
(dp133
g108
F1.046992799053061
ssg40
(dp134
g108
F2.5334566384826323
ssV\u6c34\u5229\u7cfb
p135
(dp136
g108
F1.0991673518916198
ssg44
(dp137
g108
F1.0316241262169845
ssg46
(dp138
g108
F0.059055889266126926
ssV\u751f\u547d\u5b66\u9662
p139
(dp140
g108
F1.8263692369337108
ssg58
(dp141
g108
F0.25182815356489946
ssV\u6559\u7814\u9662
p142
(dp143
g108
F0.9991454193394849
ssg56
(dp144
g108
F0.8471571443934063
ssg50
(dp145
g108
F0.3267583950736072
ssg60
(dp146
g108
F0.8852344556352327
ssg62
(dp147
g108
F1.819093242141227
ssg64
(dp148
g108
F1.2634030740063649
ssg66
(dp149
g108
F1.1352476731689713
ssg68
(dp150
g108
F0.9539355783203343
ssg70
(dp151
g108
F1.3093259574063962
ssg72
(dp152
g108
F1.1785708368082979
ssg74
(dp153
g108
F0.631393382908826
ssV\u7f8e\u672f\u5b66\u9662
p154
(dp155
g108
F0.9508510001389825
ssg78
(dp156
g108
F0.9323133635028621
ssg80
(dp157
g108
F0.5365630712979891
ssV\u5de5\u7269\u7cfb
p158
(dp159
g108
F1.0425712557007814
ssg84
(dp160
g108
F0.7280869577540638
ssg86
(dp161
g108
F1.208927213602757
ssg88
(dp162
g108
F1.8641502833846244
ssg90
(dp163
g108
F1.0018281535648994
ssg92
(dp164
g108
F1.080589705315063
ssg94
(dp165
g108
F0.8514399166519235
ssg96
(dp166
g108
F0.3293745103160094
ssg98
(dp167
g108
F0.9654247463337139
sssg16
(dp168
g14
g120
sg16
(dp169
g108
F2.3855421686746987
ssV\u7cbe\u4eea\u7cfb
p170
(dp171
g108
F0.47978524978575393
ssg122
(dp172
g108
F0.5099606346176786
ssV\u65b0\u95fb\u5b66\u9662
p173
(dp174
g108
F0.5150019432568986
ssV\u5316\u5b66\u7cfb
p175
(dp176
g108
F0.14850801053677073
ssV\u7535\u5b50\u7cfb
p177
(dp178
g108
F3.7361445783132528
ssV\u70ed\u80fd\u7cfb
p179
(dp180
g108
F0.4800282209920764
ssg30
(dp181
g108
F0.5742874646284897
ssg36
(dp182
g108
F0.7816712860833004
ssV\u571f\u6728\u7cfb
p183
(dp184
g108
F0.8240612218459089
ssV\u5730\u5b66\u7cfb
p185
(dp186
g108
F0.14850707176532216
ssg38
(dp187
g108
F0.4428499337664795
ssV\u8f6f\u4ef6\u5b66\u9662
p188
(dp189
g108
F2.113963667168675
ssV\u6c34\u5229\u7cfb
p190
(dp191
g108
F0.3529226074604093
ssV\u6cd5\u5b66\u9662
p192
(dp193
g108
F0.4499428045102729
ssV\u751f\u547d\u5b66\u9662
p194
(dp195
g108
F0.5015954227870386
ssV\u9ad8\u7814\u9662
p196
(dp197
g108
F0.11731135066582117
ssg142
(dp198
g108
F0.5851215512939332
ssg56
(dp199
g108
F0.34418345651513615
ssV\u73af\u5883\u5b66\u9662
p200
(dp201
g108
F0.7633041390654871
ssg62
(dp202
g108
F0.8264290986205391
ssg64
(dp203
g108
F0.25479696564033916
ssV\u5316\u5de5\u7cfb
p204
(dp205
g108
F0.4342445704727805
ssV\u7269\u7406\u7cfb
p206
(dp207
g108
F0.23989448919940115
ssg70
(dp208
g108
F0.1946878422782037
ssg72
(dp209
g108
F1.032249845302661
ssV\u6570\u5b66\u7cfb
p210
(dp211
g108
F0.11740193858139324
ssV\u7f8e\u672f\u5b66\u9662
p212
(dp213
g108
F0.4865955048263228
ssV\u9a6c\u514b\u601d\u4e3b\u4e49\u5b66\u9662
p214
(dp215
g108
F0.1422081769701758
ssV\u836f\u5b66\u9662
p216
(dp217
g108
F0.03102409638554217
ssV\u5de5\u7269\u7cfb
p218
(dp219
g108
F0.6945075676370964
ssg84
(dp220
g108
F0.16531241244045952
ssg86
(dp221
g108
F0.7349042186444895
ssg88
(dp222
g108
F0.8135960699289184
ssg90
(dp223
g108
F1.0060240963855422
ssV\u6750\u6599\u5b66\u9662
p224
(dp225
g108
F0.2986404332928042
ssV\u793e\u79d1\u5b66\u9662
p226
(dp227
g108
F1.250481306669979
ssV\u5916\u6587\u7cfb
p228
(dp229
g108
F0.16312392426850258
ssg98
(dp230
g108
F0.3440662212167447
sssg18
(dp231
g14
g121
sg16
g171
sV\u7cbe\u4eea\u7cfb
p232
(dp233
g108
F5.154811715481172
ssV\u5de5\u4e1a\u5de5\u7a0b\u7cfb
p234
(dp235
g108
F0.6725941422594142
ssV\u793e\u79d1\u5b66\u9662
p236
(dp237
g108
F1.1602251649915887
ssV\u5316\u5b66\u7cfb
p238
(dp239
g108
F0.5378593602375489
ssV\u7535\u5b50\u7cfb
p240
(dp241
g108
F4.369223616922362
ssV\u70ed\u80fd\u7cfb
p242
(dp243
g108
F0.8817803158807342
ssg30
(dp244
g108
F0.680357016219721
ssg36
(dp245
g108
F1.2475429050359805
ssV\u571f\u6728\u7cfb
p246
(dp247
g108
F1.487251669462494
ssg32
(dp248
g108
F0.19064944515190102
ssg38
(dp249
g108
F1.6186992048018576
ssg188
(dp250
g108
F3.811216984832636
ssV\u6c34\u5229\u7cfb
p251
(dp252
g108
F0.8150408360892364
ssV\u6cd5\u5b66\u9662
p253
(dp254
g108
F1.1538521067538914
ssg194
(dp255
g108
F1.240877132649357
ssg58
(dp256
g108
F0.25418410041841005
ssV\u6559\u7814\u9662
p257
(dp258
g108
F1.2626575227154564
ssg56
(dp259
g108
F0.5099211232610199
ssg50
(dp260
g108
F0.2840783968288923
ssV\u73af\u5883\u5b66\u9662
p261
(dp262
g108
F0.7415816208371289
ssg62
(dp263
g108
F1.4383702585911242
ssg64
(dp264
g108
F0.9846789606901183
ssV\u5316\u5de5\u7cfb
p265
(dp266
g108
F0.6416830793526898
ssV\u7269\u7406\u7cfb
p267
(dp268
g108
F0.8926906158962805
ssg70
(dp269
g108
F0.47557463457045046
ssg72
(dp270
g108
F0.6947502812575055
ssV\u6570\u5b66\u7cfb
p271
(dp272
g108
F0.32568345550067634
ssV\u7f8e\u672f\u5b66\u9662
p273
(dp274
g108
F0.491209718857814
ssV\u9a6c\u514b\u601d\u4e3b\u4e49\u5b66\u9662
p275
(dp276
g108
F0.6066602647643872
ssV\u836f\u5b66\u9662
p277
(dp278
g108
F0.17510460251046026
ssV\u5de5\u7269\u7cfb
p279
(dp280
g108
F0.8468112985601335
ssg84
(dp281
g108
F0.4058253056988097
ssV\u5efa\u7b51\u5b66\u9662
p282
(dp283
g108
F1.4204156946964366
ssg88
(dp284
g108
F2.6429599412891602
ssV\u6750\u6599\u5b66\u9662
p285
(dp286
g108
F1.1255460442977236
ssV\u65b0\u95fb\u5b66\u9662
p287
(dp288
g108
F2.115769109641427
ssV\u5916\u6587\u7cfb
p289
(dp290
g108
F0.3024656306037059
ssg98
(dp291
g108
F1.218176170725914
sssg20
(dp292
g12
g112
sg14
g123
sg16
g172
sg18
g235
sV\u5de5\u4e1a\u5de5\u7a0b\u7cfb
p293
(dp294
g108
F9.94059405940594
ssV\u65b0\u95fb\u5b66\u9662
p295
(dp296
g108
F2.8402320877249014
ssg24
(dp297
g108
F0.8150661840377587
ssV\u7535\u5b50\u7cfb
p298
(dp299
g108
F1.487692519251925
ssV\u70ed\u80fd\u7cfb
p300
(dp301
g108
F1.9950049058959949
ssV\u7535\u673a\u7cfb
p302
(dp303
g108
F1.5375182796730038
ssg36
(dp304
g108
F1.4706301616077102
ssV\u571f\u6728\u7cfb
p305
(dp306
g108
F11.303972563154932
ssV\u5730\u5b66\u7cfb
p307
(dp308
g108
F0.27572105036590616
ssV\u822a\u9662
p309
(dp310
g108
F0.7765624730012268
ssV\u8f6f\u4ef6\u5b66\u9662
p311
(dp312
g108
F2.4356048886138613
ssV\u6c34\u5229\u7cfb
p313
(dp314
g108
F0.847874962168706
ssV\u6cd5\u5b66\u9662
p315
(dp316
g108
F2.4623066499005017
ssV\u65b0\u96c5\u4e66\u9662
p317
(dp318
g108
F0.14232673267326734
ssV\u751f\u547d\u5b66\u9662
p319
(dp320
g108
F2.036258420362584
ssg50
(dp321
g108
F0.2755341323606045
ssg52
(dp322
g108
F0.4148514851485149
ssV\u6559\u7814\u9662
p323
(dp324
g108
F1.3931396098189701
ssg56
(dp325
g108
F0.522360429320243
ssV\u73af\u5883\u5b66\u9662
p326
(dp327
g108
F0.38882393774432794
ssg62
(dp328
g108
F3.9422492076645113
ssV\u6c7d\u8f66\u7cfb
p329
(dp330
g108
F0.6922136658110255
ssV\u5316\u5de5\u7cfb
p331
(dp332
g108
F1.8345557440776616
ssg206
(dp333
g108
F0.6938309215536939
ssV\u6838\u7814\u9662
p334
(dp335
g108
F0.6294200848656295
ssg72
(dp336
g108
F1.590342795608866
ssV\u6570\u5b66\u7cfb
p337
(dp338
g108
F0.3491401771756123
ssV\u7f8e\u672f\u5b66\u9662
p339
(dp340
g108
F1.744195472178797
ssg275
(dp341
g108
F0.23478331439701347
ssg216
(dp342
g108
F0.3022277227722773
ssV\u5de5\u7269\u7cfb
p343
(dp344
g108
F0.7871022867411297
ssg84
(dp345
g108
F0.5522680174994243
ssV\u5efa\u7b51\u5b66\u9662
p346
(dp347
g108
F1.0112444872805866
ssg88
(dp348
g108
F0.5751313741852545
ssV\u6750\u6599\u5b66\u9662
p349
(dp350
g108
F1.8792079207920793
ssV\u793e\u79d1\u5b66\u9662
p351
(dp352
g108
F1.9195927324691233
ssg96
(dp353
g108
F0.23582036775106083
ssg98
(dp354
g108
F0.660383068874573
sssg22
(dp355
g12
g113
sg14
g125
sV\u6c34\u5229\u7cfb
p356
(dp357
g108
F1.538125196956737
ssg16
g227
sg18
g237
sV\u5de5\u4e1a\u5de5\u7a0b\u7cfb
p358
g352
sg287
(dp359
g108
F2.8786082474226804
ssV\u5316\u5b66\u7cfb
p360
(dp361
g108
F0.6839319365923955
ssg26
(dp362
g108
F1.697565864833906
ssV\u70ed\u80fd\u7cfb
p363
(dp364
g108
F2.011238042165877
ssg302
(dp365
g108
F1.4394673123486683
ssg36
(dp366
g108
F2.1487645806108127
ssg32
(dp367
g108
F0.7162707306140744
ssg309
(dp368
g108
F1.2863568485633579
ssV\u8f6f\u4ef6\u5b66\u9662
p369
(dp370
g108
F1.9612798002577319
ssg34
(dp371
g108
F3.468802951842526
ssg44
(dp372
g108
F1.558413947398528
ssg317
(dp373
g108
F0.24889543446244478
ssV\u751f\u547d\u5b66\u9662
p374
(dp375
g108
F1.8907051734689073
ssV\u9ad8\u7814\u9662
p376
(dp377
g108
F0.16176071622354854
ssV\u6559\u7814\u9662
p378
(dp379
g108
F2.9904151162081374
ssg56
(dp380
g108
F1.6972588004273876
ssV\u73af\u5883\u5b66\u9662
p381
(dp382
g108
F0.9087666907596911
ssg62
(dp383
g108
F2.6678259786698453
ssV\u6c7d\u8f66\u7cfb
p384
(dp385
g108
F0.6313096601756396
ssg265
(dp386
g108
F1.0719357291410425
ssg267
(dp387
g108
F1.6631336546086746
ssV\u6838\u7814\u9662
p388
(dp389
g108
F0.8435868255455885
ssg72
(dp390
g108
F3.182728844177282
ssV\u6570\u5b66\u7cfb
p391
(dp392
g108
F0.8935063173397411
ssV\u7f8e\u672f\u5b66\u9662
p393
(dp394
g108
F1.941957557123048
ssV\u9a6c\u514b\u601d\u4e3b\u4e49\u5b66\u9662
p395
(dp396
g108
F2.2006084164272433
ssV\u836f\u5b66\u9662
p397
(dp398
g108
F0.4731958762886598
ssV\u5de5\u7269\u7cfb
p399
(dp400
g108
F1.2026635359724107
ssg84
(dp401
g108
F0.7865320067130185
ssg346
(dp402
g108
F2.0146542286287747
ssg88
(dp403
g108
F1.3481612380527441
ssg90
(dp404
g108
F2.002577319587629
ssV\u6750\u6599\u5b66\u9662
p405
(dp406
g108
F1.1806913837132318
ssV\u793e\u79d1\u5b66\u9662
p407
(dp408
g108
F24.13659793814433
ssV\u5916\u6587\u7cfb
p409
(dp410
g108
F1.5114874815905743
ssg98
(dp411
g108
F1.0345874788037035
sssg24
(dp412
g14
g126
sg16
g176
sg18
g239
sg358
g297
sV\u65b0\u95fb\u5b66\u9662
p413
(dp414
g108
F0.831899641577061
ssV\u5316\u5b66\u7cfb
p415
(dp416
g108
F27.63799283154122
ssV\u7535\u5b50\u7cfb
p417
(dp418
g108
F0.6107526881720431
ssg300
(dp419
g108
F0.6430543446672479
ssg302
(dp420
g108
F0.7331354630425161
ssg36
(dp421
g108
F0.49348780857186125
ssg307
(dp422
g108
F0.5432445067788686
ssg309
(dp423
g108
F0.7251496556512602
ssV\u8f6f\u4ef6\u5b66\u9662
p424
(dp425
g108
F0.38950492831541217
ssg356
(dp426
g108
F0.5525973924339891
ssV\u6cd5\u5b66\u9662
p427
(dp428
g108
F0.7865416826874208
ssV\u751f\u547d\u5b66\u9662
p429
(dp430
g108
F1.945021358079246
ssg50
(dp431
g108
F0.10884738728541785
ssg52
(dp432
g108
F8.625806451612904
ssV\u6559\u7814\u9662
p433
(dp434
g108
F0.5473584865644419
ssV\u516c\u7ba1\u5b66\u9662
p435
(dp436
g108
F0.528222041504774
ssV\u73af\u5883\u5b66\u9662
p437
(dp438
g108
F0.43645597746300047
ssg62
(dp439
g108
F0.9212598303444139
ssV\u6c7d\u8f66\u7cfb
p440
(dp441
g108
F0.20880127439267224
ssg66
(dp442
g108
F2.634272541381911
ssV\u7269\u7406\u7cfb
p443
(dp444
g108
F1.4380394901486713
ssV\u6838\u7814\u9662
p445
(dp446
g108
F0.4182260391937811
ssg72
(dp447
g108
F1.066768454449967
ssV\u6570\u5b66\u7cfb
p448
(dp449
g108
F0.5662543455412725
ssg339
(dp450
g108
F0.3709677419354839
ssV\u9a6c\u514b\u601d\u4e3b\u4e49\u5b66\u9662
p451
(dp452
g108
F0.3595980962453728
ssV\u836f\u5b66\u9662
p453
(dp454
g108
F1.232437275985663
ssg84
(dp455
g108
F1.58431274485288
ssV\u5de5\u7269\u7cfb
p456
(dp457
g108
F0.5964361790328958
ssV\u571f\u6728\u7cfb
p458
(dp459
g108
F1.0983102918586791
ssV\u5916\u6587\u7cfb
p460
(dp461
g108
F0.5578084997439836
ssg88
(dp462
g108
F0.7448134812746467
ssV\u6750\u6599\u5b66\u9662
p463
(dp464
g108
F1.059077307553188
ssg351
g361
sV\u5efa\u7b51\u5b66\u9662
p465
(dp466
g108
F0.44105052811875534
ssg98
(dp467
g108
F0.7307367234821806
sssg26
(dp468
g14
g127
sg16
g178
sg18
g241
sg358
g299
sV\u65b0\u95fb\u5b66\u9662
p469
(dp470
g108
F0.9344086021505376
ssg24
g418
sV\u7535\u5b50\u7cfb
p471
(dp472
g108
F16.730555555555554
ssV\u70ed\u80fd\u7cfb
p473
(dp474
g108
F2.250225225225225
ssV\u7535\u673a\u7cfb
p475
(dp476
g108
F2.320409604519774
ssg36
(dp477
g108
F1.3410406885758999
ssV\u571f\u6728\u7cfb
p478
(dp479
g108
F2.5915386584741427
ssV\u5730\u5b66\u7cfb
p480
(dp481
g108
F0.403804347826087
ssV\u822a\u9662
p482
(dp483
g108
F1.1815517742873765
ssg188
(dp484
g108
F3.1515190972222222
ssg251
(dp485
g108
F0.9680919456574478
ssg44
(dp486
g108
F2.420045554185505
ssg46
(dp487
g108
F0.6736111111111112
ssV\u751f\u547d\u5b66\u9662
p488
(dp489
g108
F1.447412480974125
ssg50
(dp490
g108
F0.2701023391812865
ssg52
(dp491
g108
F4.559722222222223
ssg142
(dp492
g108
F1.760757725180802
ssV\u516c\u7ba1\u5b66\u9662
p493
(dp494
g108
F2.4302054154995334
ssV\u73af\u5883\u5b66\u9662
p495
(dp496
g108
F0.9895756457564575
ssg62
(dp497
g108
F2.963239382609529
ssV\u6c7d\u8f66\u7cfb
p498
(dp499
g108
F1.3040123456790123
ssV\u5316\u5de5\u7cfb
p500
(dp501
g108
F0.7898951554591468
ssV\u7269\u7406\u7cfb
p502
(dp503
g108
F1.3041748849441157
ssV\u6838\u7814\u9662
p504
(dp505
g108
F0.9642135642135642
ssg72
(dp506
g108
F1.4033400469956363
ssV\u6570\u5b66\u7cfb
p507
(dp508
g108
F0.8546157059314954
ssV\u7f8e\u672f\u5b66\u9662
p509
(dp510
g108
F1.1774122807017542
ssV\u9a6c\u514b\u601d\u4e3b\u4e49\u5b66\u9662
p511
(dp512
g108
F1.7062386156648452
ssg397
(dp513
g108
F0.7652777777777777
ssV\u5de5\u7269\u7cfb
p514
(dp515
g108
F1.1152234084618426
ssg84
(dp516
g108
F0.7952519379844961
ssV\u5efa\u7b51\u5b66\u9662
p517
(dp518
g108
F1.3459931170108161
ssg88
(dp519
g108
F3.868466843837003
ssg90
(dp520
g108
F1.0013888888888889
ssg224
(dp521
g108
F2.7530835881753313
ssg351
g362
sV\u5916\u6587\u7cfb
p522
(dp523
g108
F0.8779761904761905
ssg98
(dp524
g108
F1.2089095099466278
sssg28
(dp525
g14
g128
sg16
g180
sg18
g243
sg358
g301
sg469
(dp526
g108
F1.1711421098517873
ssg24
g419
sV\u7535\u5b50\u7cfb
p527
g474
sV\u70ed\u80fd\u7cfb
p528
(dp529
g108
F13.00900900900901
ssV\u7535\u673a\u7cfb
p530
(dp531
g108
F1.266534694500796
ssg36
(dp532
g108
F0.935213382396481
ssV\u571f\u6728\u7cfb
p533
(dp534
g108
F2.0646510565865404
ssg307
(dp535
g108
F0.27438307873090484
ssV\u822a\u9662
p536
(dp537
g108
F0.8994269138248197
ssV\u8f6f\u4ef6\u5b66\u9662
p538
(dp539
g108
F0.6686549831081081
ssg135
(dp540
g108
F1.2552913175183917
ssV\u6cd5\u5b66\u9662
p541
(dp542
g108
F0.9933098943579831
ssV\u65b0\u96c5\u4e66\u9662
p543
(dp544
g108
F0.14076576576576577
ssV\u751f\u547d\u5b66\u9662
p545
(dp546
g108
F1.5781192151055166
ssV\u9ad8\u7814\u9662
p547
(dp548
g108
F0.27441915599810335
ssg52
(dp549
g108
F0.06891891891891892
ssV\u6559\u7814\u9662
p550
(dp551
g108
F1.4786635748174208
ssg493
(dp552
g108
F1.263343175107881
ssg60
(dp553
g108
F0.8194541404873508
ssg62
(dp554
g108
F1.55441744591874
ssg498
(dp555
g108
F1.1048048048048047
ssg66
(dp556
g108
F1.5342430282777353
ssg68
(dp557
g108
F1.3223119569273416
ssV\u6838\u7814\u9662
p558
(dp559
g108
F4.173745173745174
ssg72
(dp560
g108
F0.9482322201355433
ssV\u6570\u5b66\u7cfb
p561
(dp562
g108
F0.7213980898191424
ssV\u7f8e\u672f\u5b66\u9662
p563
(dp564
g108
F0.7391338707128181
ssV\u9a6c\u514b\u601d\u4e3b\u4e49\u5b66\u9662
p565
(dp566
g108
F0.5955914931324767
ssV\u836f\u5b66\u9662
p567
(dp568
g108
F1.0628378378378378
ssg399
(dp569
g108
F1.7456878586771825
ssg84
(dp570
g108
F1.1804944479363084
ssV\u5efa\u7b51\u5b66\u9662
p571
(dp572
g108
F0.8572510563661007
ssg88
(dp573
g108
F1.4043485398838473
ssg92
(dp574
g108
F1.655281428217208
ssg351
g364
sg522
(dp575
g108
F0.3377734877734878
ssg98
(dp576
g108
F1.2050533065816909
sssg30
(dp577
g14
g129
sg16
g181
sg18
g244
sg358
g303
sg413
(dp578
g108
F0.886937957249603
ssg24
g420
sg527
g476
sV\u70ed\u80fd\u7cfb
p579
g531
sg302
(dp580
g108
F7.535108958837772
ssg36
(dp581
g108
F1.9054288063598164
ssg185
(dp582
g108
F0.2294978418780924
ssg309
(dp583
g108
F1.3666146909558037
ssV\u8f6f\u4ef6\u5b66\u9662
p584
(dp585
g108
F1.5835445671912833
ssV\u571f\u6728\u7cfb
p586
(dp587
g108
F1.709599312661095
ssV\u6cd5\u5b66\u9662
p588
(dp589
g108
F0.8478099258679834
ssV\u65b0\u96c5\u4e66\u9662
p590
(dp591
g108
F0.04055690072639225
ssg545
(dp592
g108
F1.2291867060267339
ssV\u9ad8\u7814\u9662
p593
(dp594
g108
F0.16515865936026505
ssg550
(dp595
g108
F1.0006160723240254
ssV\u516c\u7ba1\u5b66\u9662
p596
(dp597
g108
F1.1541565778853915
ssg437
(dp598
g108
F0.6058182857857635
ssg62
(dp599
g108
F1.4220240793704182
ssg64
(dp600
g108
F0.45970167100110604
ssg66
(dp601
g108
F0.6518516962283277
ssg206
(dp602
g108
F0.5536054558218835
ssV\u6838\u7814\u9662
p603
(dp604
g108
F0.8275368699097513
ssg72
(dp605
g108
F1.325044073648713
ssV\u6570\u5b66\u7cfb
p606
(dp607
g108
F0.3770230661399261
ssV\u7f8e\u672f\u5b66\u9662
p608
(dp609
g108
F0.45046231397703296
ssV\u9a6c\u514b\u601d\u4e3b\u4e49\u5b66\u9662
p610
(dp611
g108
F0.8175882189497083
ssV\u836f\u5b66\u9662
p612
(dp613
g108
F0.49358353510895886
ssg84
(dp614
g108
F0.7223004298290069
ssg399
(dp615
g108
F0.8695380558882579
ssV\u6c34\u5229\u7cfb
p616
(dp617
g108
F1.013036996309885
ssg346
(dp618
g108
F1.7026541530066353
ssg88
(dp619
g108
F0.9163463076439409
ssg405
(dp620
g108
F0.9023080169713664
ssg351
g365
sg96
(dp621
g108
F0.32960048426150124
ssg98
(dp622
g108
F0.8180283437481276
sssg32
(dp623
g14
g132
sg16
g186
sg18
g248
sg358
g308
sV\u65b0\u95fb\u5b66\u9662
p624
(dp625
g108
F0.04562879850397382
ssg24
g422
sg527
g481
sg579
g535
sg302
g582
sg36
(dp626
g108
F0.9008641219296455
ssV\u571f\u6728\u7cfb
p627
(dp628
g108
F0.3601148734388566
ssg480
(dp629
g108
F0.5217391304347826
ssV\u822a\u9662
p630
(dp631
g108
F0.22611730783822748
ssV\u8f6f\u4ef6\u5b66\u9662
p632
(dp633
g108
F0.18172554347826086
ssV\u6c34\u5229\u7cfb
p634
(dp635
g108
F1.643820011391684
ssV\u6cd5\u5b66\u9662
p636
(dp637
g108
F0.4024017584302793
ssV\u751f\u547d\u5b66\u9662
p638
(dp639
g108
F0.9370160810005955
ssV\u516c\u7ba1\u5b66\u9662
p640
(dp641
g108
F0.41651443185970044
ssV\u73af\u5883\u5b66\u9662
p642
(dp643
g108
F0.09064655863949944
ssg62
(dp644
g108
F0.7981393255054958
ssV\u6c7d\u8f66\u7cfb
p645
(dp646
g108
F0.3675791733762748
ssV\u5316\u5de5\u7cfb
p647
(dp648
g108
F0.27388474959917003
ssV\u7269\u7406\u7cfb
p649
(dp650
g108
F1.3180687762627563
ssV\u6838\u7814\u9662
p651
(dp652
g108
F0.09345002823263693
ssg72
(dp653
g108
F0.44988834887692103
ssV\u7f8e\u672f\u5b66\u9662
p654
(dp655
g108
F0.5392829900839053
ssg395
(dp656
g108
F0.6200997861724875
ssg277
(dp657
g108
F0.27391304347826084
ssV\u5de5\u7269\u7cfb
p658
(dp659
g108
F0.226288101500851
ssg84
(dp660
g108
F0.15369059656218403
ssg88
(dp661
g108
F0.2745369911855006
ssg90
(dp662
g108
F2.0869565217391304
ssV\u6750\u6599\u5b66\u9662
p663
(dp664
g108
F1.1328280813721578
ssg351
g367
sV\u5efa\u7b51\u5b66\u9662
p665
(dp666
g108
F1.3935488008208285
ssg98
(dp667
g108
F0.853743433959876
sssg34
(dp668
g14
g131
sg16
g184
sg18
g247
sg358
g306
sg295
(dp669
g108
F4.151152073732719
ssg24
g459
sg527
g479
sg579
g534
sg302
g587
sg36
(dp670
g108
F1.829615686953261
ssV\u571f\u6728\u7cfb
p671
(dp672
g108
F75.08448540706605
ssg32
g628
sg309
(dp673
g108
F1.2731440152483895
ssV\u8f6f\u4ef6\u5b66\u9662
p674
(dp675
g108
F2.644831269201229
ssV\u6c34\u5229\u7cfb
p676
(dp677
g108
F1.458045734140959
ssg315
(dp678
g108
F2.522690122944687
ssV\u65b0\u96c5\u4e66\u9662
p679
(dp680
g108
F0.19393241167434716
ssg319
(dp681
g108
F3.261378700839593
ssg50
(dp682
g108
F0.7583474816072439
ssV\u9a6c\u514b\u601d\u4e3b\u4e49\u5b66\u9662
p683
(dp684
g108
F1.1192742565032359
ssg550
(dp685
g108
F3.040929294031031
ssg56
(dp686
g108
F0.8067226890756303
ssg60
(dp687
g108
F1.115768530957199
ssg62
(dp688
g108
F5.675823615092729
ssV\u6c7d\u8f66\u7cfb
p689
(dp690
g108
F0.7529840131990669
ssg331
(dp691
g108
F2.697455274881627
ssg206
(dp692
g108
F0.7823921322680628
ssg603
(dp693
g108
F1.7935693338919143
ssg72
(dp694
g108
F3.333059527290109
ssV\u6570\u5b66\u7cfb
p695
(dp696
g108
F0.8525749858517261
ssV\u7f8e\u672f\u5b66\u9662
p697
(dp698
g108
F2.4254520710378094
ssg52
(dp699
g108
F0.06820276497695853
ssV\u836f\u5b66\u9662
p700
(dp701
g108
F0.29189708141321047
ssg514
(dp702
g108
F1.6676752436711109
ssg84
(dp703
g108
F0.7058907584038867
ssg571
(dp704
g108
F2.2612794475483597
ssg88
(dp705
g108
F2.5019857307314135
ssg90
(dp706
g108
F1.001536098310292
ssV\u6750\u6599\u5b66\u9662
p707
(dp708
g108
F3.0372355867472765
ssg351
g371
sV\u5916\u6587\u7cfb
p709
(dp710
g108
F0.9551075268817204
ssg98
(dp711
g108
F1.2924154307447728
sssg36
(dp712
g14
g130
sg16
g182
sg18
g245
sg358
g304
sV\u65b0\u95fb\u5b66\u9662
p713
(dp714
g108
F0.9808874753899743
ssg24
g421
sg527
g477
sg579
g532
sg302
g581
sg36
(dp715
g108
F12.751173708920188
ssg32
g626
sg309
(dp716
g108
F1.6683135461986578
ssV\u8f6f\u4ef6\u5b66\u9662
p717
(dp718
g108
F2.058071082746479
ssg135
(dp719
g108
F1.0607834293485319
ssV\u6cd5\u5b66\u9662
p720
(dp721
g108
F0.9345289437681026
ssg46
(dp722
g108
F0.05826626425217974
ssg139
(dp723
g108
F1.207097991296332
ssg50
(dp724
g108
F1.1923235318342806
ssg433
(dp725
g108
F2.0875072922743563
ssV\u516c\u7ba1\u5b66\u9662
p726
(dp727
g108
F0.8950434633947475
ssg60
(dp728
g108
F0.7058624811600229
ssg62
(dp729
g108
F1.3425501720899646
ssg689
(dp730
g108
F0.7019300991131977
ssV\u5316\u5de5\u7cfb
p731
(dp732
g108
F0.5153116820954651
ssg68
(dp733
g108
F1.1991554851793205
ssV\u6838\u7814\u9662
p734
(dp735
g108
F0.49560494278804135
ssg72
(dp736
g108
F0.9626375236987552
ssg391
(dp737
g108
F0.6548942779483922
ssV\u7f8e\u672f\u5b66\u9662
p738
(dp739
g108
F1.0231035334815912
ssg395
(dp740
g108
F2.079234972677596
ssg397
(dp741
g108
F0.2125195618153365
ssg84
(dp742
g108
F1.7608909269570914
ssg514
(dp743
g108
F0.9096508668459948
ssg478
g670
sg346
(dp744
g108
F1.6901685432160316
ssg88
(dp745
g108
F0.6609701234488683
ssg90
(dp746
g108
F3.004694835680751
ssg349
(dp747
g108
F0.921347862916541
ssg351
g366
sV\u5916\u6587\u7cfb
p748
(dp749
g108
F0.4006371562709591
ssg98
(dp750
g108
F1.0843771996364406
sssg38
(dp751
g14
g133
sg16
g187
sg18
g249
sg358
g310
sg351
g368
sg24
g423
sg527
g483
sg579
g537
sg302
g583
sg36
g716
sg32
g631
sV\u822a\u9662
p752
(dp753
g108
F7.37521815008726
ssg538
(dp754
g108
F1.59028005017452
ssg586
g673
sV\u6cd5\u5b66\u9662
p755
(dp756
g108
F0.6552141905690301
ssV\u65b0\u96c5\u4e66\u9662
p757
(dp758
g108
F0.03920468711044627
ssV\u751f\u547d\u5b66\u9662
p759
(dp760
g108
F1.166248296636305
ssg50
(dp761
g108
F0.27188389822724346
ssg550
(dp762
g108
F1.9462395571940476
ssg56
(dp763
g108
F0.5864754278674821
ssV\u73af\u5883\u5b66\u9662
p764
(dp765
g108
F0.7180438296529562
ssg62
(dp766
g108
F0.7511078787002696
ssV\u6c7d\u8f66\u7cfb
p767
(dp768
g108
F0.7754379161010924
ssV\u5316\u5de5\u7cfb
p769
(dp770
g108
F0.6302180933019879
ssV\u7269\u7406\u7cfb
p771
(dp772
g108
F1.048359614610118
ssg388
(dp773
g108
F0.5790666576006891
ssg72
(dp774
g108
F1.0744056563483653
ssV\u6570\u5b66\u7cfb
p775
(dp776
g108
F0.9522956606175124
ssV\u7f8e\u672f\u5b66\u9662
p777
(dp778
g108
F0.5805012093934663
ssg275
(dp779
g108
F0.32808342631533777
ssg80
(dp780
g108
F0.21396160558464225
ssg84
(dp781
g108
F1.8994277365152807
ssg456
(dp782
g108
F0.8176979498549807
ssV\u6c34\u5229\u7cfb
p783
(dp784
g108
F0.7700069350770098
ssg346
(dp785
g108
F1.130264560070426
ssg88
(dp786
g108
F0.768413059984814
ssV\u6750\u6599\u5b66\u9662
p787
(dp788
g108
F0.5907104087612278
ssV\u65b0\u95fb\u5b66\u9662
p789
(dp790
g108
F0.7596689748353319
ssV\u5916\u6587\u7cfb
p791
(dp792
g108
F0.38279730740463724
ssg98
(dp793
g108
F0.9858478703216809
sssg40
(dp794
g14
g134
sg16
g189
sg18
g250
sg358
g312
sg287
(dp795
g108
F1.0341229838709678
ssg24
g425
sg527
g484
sg579
g539
sg302
g585
sg36
g718
sg32
g633
sg309
g754
sV\u8f6f\u4ef6\u5b66\u9662
p796
(dp797
g108
F30.58203125
ssV\u571f\u6728\u7cfb
p798
g675
sg755
(dp799
g108
F0.7774256319358817
ssg194
(dp800
g108
F2.2529252283105023
ssg50
(dp801
g108
F0.5458470394736842
ssg142
(dp802
g108
F3.1795950443786984
ssg726
(dp803
g108
F0.6465773809523809
ssg381
(dp804
g108
F1.2875706296125462
ssg62
(dp805
g108
F1.19958948986195
ssg689
(dp806
g108
F0.7694733796296296
ssV\u5316\u5de5\u7cfb
p807
(dp808
g108
F0.8285868017895879
ssV\u7269\u7406\u7cfb
p809
(dp810
g108
F1.2129830806213018
ssg334
(dp811
g108
F1.0815746753246753
ssg72
(dp812
g108
F2.1267111971299095
ssV\u6570\u5b66\u7cfb
p813
(dp814
g108
F0.4398643092105263
ssg154
(dp815
g108
F1.5163103070175439
ssV\u9a6c\u514b\u601d\u4e3b\u4e49\u5b66\u9662
p816
(dp817
g108
F1.1570824795081966
ssg700
(dp818
g108
F0.242578125
ssg84
(dp819
g108
F0.8734556686046512
ssV\u5de5\u7269\u7cfb
p820
(dp821
g108
F0.854738934608541
ssg190
(dp822
g108
F1.402284047489083
ssV\u5efa\u7b51\u5b66\u9662
p823
(dp824
g108
F3.2840731010324484
ssg88
(dp825
g108
F1.3158501210136673
ssg405
(dp826
g108
F0.7386575401376148
ssg351
g370
sV\u5916\u6587\u7cfb
p827
(dp828
g108
F0.3646205357142857
ssg98
(dp829
g108
F1.2850908615356622
sssg42
(dp830
g12
g111
sg14
g136
sV\u6c34\u5229\u7cfb
p831
(dp832
g108
F6.5895196506550215
ssg16
g191
sg18
g252
sg358
g314
sg351
g357
sg24
g426
sg527
g485
sg579
g540
sg302
g617
sg36
g719
sg32
g635
sg309
g784
sg674
g822
sV\u571f\u6728\u7cfb
p833
g677
sV\u6cd5\u5b66\u9662
p834
(dp835
g108
F0.8677787410011899
ssg317
(dp836
g108
F0.060121646912039924
ssV\u751f\u547d\u5b66\u9662
p837
(dp838
g108
F1.3865077466052522
ssg547
(dp839
g108
F0.21925994024362214
ssV\u6559\u7814\u9662
p840
(dp841
g108
F1.0287718663600423
ssg493
(dp842
g108
F0.6430039264614142
ssg60
(dp843
g108
F0.6324626565042943
ssg62
(dp844
g108
F1.0174371069774804
ssg689
(dp845
g108
F0.6467033263248693
ssg331
(dp846
g108
F0.6137170949805341
ssg68
(dp847
g108
F1.009857626417922
ssg558
(dp848
g108
F0.46699370498497134
ssg72
(dp849
g108
F1.167297721605826
ssg775
(dp850
g108
F0.6002232655875497
ssg697
(dp851
g108
F0.5613907403151255
ssg78
(dp852
g108
F0.94459159567614
ssV\u836f\u5b66\u9662
p853
(dp854
g108
F0.9786026200873362
ssg514
(dp855
g108
F1.0461701036535145
ssg84
(dp856
g108
F0.5961206458819945
ssg517
(dp857
g108
F0.9657997449472504
ssg88
(dp858
g108
F0.731654912415076
ssg92
(dp859
g108
F1.1170786426825847
ssV\u65b0\u95fb\u5b66\u9662
p860
(dp861
g108
F0.6804291684274781
ssV\u5916\u6587\u7cfb
p862
(dp863
g108
F0.3798190892077355
ssg98
(dp864
g108
F1.3682678311499272
sssg44
(dp865
g14
g137
sg16
g193
sg18
g254
sg358
g316
sV\u65b0\u95fb\u5b66\u9662
p866
(dp867
g108
F2.561372525622158
ssg24
g428
sg527
g486
sg579
g542
sg302
g589
sg36
g721
sg32
g637
sg309
g756
sg674
g799
sg833
g678
sV\u6cd5\u5b66\u9662
p868
(dp869
g108
F11.077681874229347
ssg543
(dp870
g108
F0.40089395807644884
ssg319
(dp871
g108
F1.7595772173707414
ssg593
(dp872
g108
F0.4309169965604517
ssV\u6559\u7814\u9662
p873
(dp874
g108
F0.9295267001802144
ssV\u516c\u7ba1\u5b66\u9662
p875
(dp876
g108
F0.6898423981183102
ssV\u73af\u5883\u5b66\u9662
p877
(dp878
g108
F0.5909883019915279
ssg62
(dp879
g108
F2.0413660741167874
ssg329
(dp880
g108
F0.38502686821634624
ssg807
(dp881
g108
F1.2826456184084885
ssV\u7269\u7406\u7cfb
p882
(dp883
g108
F0.6410864420918485
ssg504
(dp884
g108
F0.5734142552884847
ssg72
(dp885
g108
F1.7668910486848133
ssV\u6570\u5b66\u7cfb
p886
(dp887
g108
F0.5092293001307213
ssg339
(dp888
g108
F1.3367368276836769
ssg610
(dp889
g108
F1.1315720320996139
ssV\u836f\u5b66\u9662
p890
(dp891
g108
F0.3934956843403206
ssg84
(dp892
g108
F0.4672191475735765
ssg343
(dp893
g108
F0.9338455665208367
ssg251
g835
sg282
(dp894
g108
F0.8773828879456151
ssg88
(dp895
g108
F1.148080633880948
ssg90
(dp896
g108
F2.0024660912453762
ssg707
(dp897
g108
F1.4051018676681863
ssg351
g372
sg460
(dp898
g108
F0.7879337678351243
ssg98
(dp899
g108
F0.7528219155462463
sssg46
(dp900
g14
g138
sg358
g318
sV\u65b0\u95fb\u5b66\u9662
p901
(dp902
g108
F0.04001536098310292
ssg527
g487
sg579
g544
sg302
g591
sg36
g722
sg309
g758
sg833
g680
sg834
g870
sg757
(dp903
g108
F3.9285714285714284
ssV\u751f\u547d\u5b66\u9662
p904
(dp905
g108
F0.15198956294846705
ssV\u516c\u7ba1\u5b66\u9662
p906
(dp907
g108
F0.02065826330532213
ssV\u73af\u5883\u5b66\u9662
p908
(dp909
g108
F0.1379151291512915
ssg62
(dp910
g108
F0.18719955626771848
ssV\u6c7d\u8f66\u7cfb
p911
(dp912
g108
F0.5081569664902998
ssg500
(dp913
g108
F0.02002634025410598
ssV\u6838\u7814\u9662
p914
(dp915
g108
F0.08441558441558442
ssg72
(dp916
g108
F0.32925118687958566
ssV\u6570\u5b66\u7cfb
p917
(dp918
g108
F0.17293233082706766
ssV\u5de5\u7269\u7cfb
p919
(dp920
g108
F0.05890950686324352
ssV\u6c34\u5229\u7cfb
p921
g836
sV\u5efa\u7b51\u5b66\u9662
p922
(dp923
g108
F0.6186262115465655
ssg88
(dp924
g108
F0.06040514155548324
ssV\u6750\u6599\u5b66\u9662
p925
(dp926
g108
F0.1378440366972477
ssg351
g373
sV\u5916\u6587\u7cfb
p927
(dp928
g108
F0.10714285714285715
ssg98
(dp929
g108
F0.07725098773133707
sssg48
(dp930
g12
g114
sg14
g140
sg16
g195
sg18
g255
sg358
g320
sg351
g375
sg24
g430
sg527
g489
sg579
g546
sg302
g592
sg36
g723
sg32
g639
sg309
g760
sg674
g800
sg833
g681
sg834
g871
sg317
g905
sV\u751f\u547d\u5b66\u9662
p931
(dp932
g108
F9.593607305936073
ssg593
(dp933
g108
F0.4839581831290555
ssg323
(dp934
g108
F2.2305530788144066
ssg56
(dp935
g108
F1.0329803154138366
ssg200
(dp936
g108
F0.9437564238656084
ssg62
(dp937
g108
F1.8420116932799098
ssg329
(dp938
g108
F0.6499238964992389
ssg807
(dp939
g108
F1.708346952723383
ssV\u7269\u7406\u7cfb
p940
(dp941
g108
F1.4853489503120694
ssV\u6838\u7814\u9662
p942
(dp943
g108
F1.1146296625748682
ssg72
(dp944
g108
F1.888314089034198
ssg507
(dp945
g108
F0.9360816424623202
ssV\u7f8e\u672f\u5b66\u9662
p946
(dp947
g108
F1.7964431627012738
ssV\u9a6c\u514b\u601d\u4e3b\u4e49\u5b66\u9662
p948
(dp949
g108
F2.147802979264915
ssg853
(dp950
g108
F2.483447488584475
ssg84
(dp951
g108
F1.591934798768185
ssg343
(dp952
g108
F1.232624839532654
ssg616
g838
sV\u5efa\u7b51\u5b66\u9662
p953
(dp954
g108
F1.083222208752576
ssg88
(dp955
g108
F6.938077927211076
ssV\u6750\u6599\u5b66\u9662
p956
(dp957
g108
F1.6132168740312514
ssV\u65b0\u95fb\u5b66\u9662
p958
(dp959
g108
F1.1621078214759168
ssg862
(dp960
g108
F0.4995759947814742
ssg98
(dp961
g108
F1.0050995992103846
sssg50
(dp962
g14
g145
sg16
g197
sg18
g260
sg358
g321
sg287
(dp963
g108
F0.21912846632710808
ssg24
g431
sg527
g490
sg579
g548
sg302
g594
sg36
g724
sg309
g761
sg674
g801
sg833
g682
sg834
g872
sg837
g933
sg50
(dp964
g108
F0.9473684210526315
ssV\u6559\u7814\u9662
p965
(dp966
g108
F0.5854873871068202
ssV\u516c\u7ba1\u5b66\u9662
p967
(dp968
g108
F0.27716349697773845
ssV\u73af\u5883\u5b66\u9662
p969
(dp970
g108
F0.38133618178287043
ssg62
(dp971
g108
F0.7489214840379638
ssV\u6c7d\u8f66\u7cfb
p972
(dp973
g108
F0.16530214424951267
ssV\u5316\u5de5\u7cfb
p974
(dp975
g108
F0.10960155268866309
ssV\u7269\u7406\u7cfb
p976
(dp977
g108
F0.7098515519568152
ssV\u6838\u7814\u9662
p978
(dp979
g108
F0.33526999316473
ssg72
(dp980
g108
F1.1369852122754016
ssg561
(dp981
g108
F0.45112781954887216
ssV\u7f8e\u672f\u5b66\u9662
p982
(dp983
g108
F0.4327485380116959
ssV\u9a6c\u514b\u601d\u4e3b\u4e49\u5b66\u9662
p984
(dp985
g108
F0.12165660051768766
ssg84
(dp986
g108
F0.12076703386372908
ssV\u5de5\u7269\u7cfb
p987
(dp988
g108
F0.4352875070237872
ssV\u6c34\u5229\u7cfb
p989
g839
sg86
(dp990
g108
F0.8657040832168917
ssg88
(dp991
g108
F0.2745474163769332
ssV\u6750\u6599\u5b66\u9662
p992
(dp993
g108
F0.16339932399806856
ssg351
g377
sV\u5916\u6587\u7cfb
p994
(dp995
g108
F0.05620300751879699
ssg98
(dp996
g108
F1.1358308434842566
sssg52
(dp997
V\u5de5\u4e1a\u5de5\u7a0b\u7cfb
p998
g322
sV\u571f\u6728\u7cfb
p999
g699
sV\u5316\u5de5\u7cfb
p1000
(dp1001
g108
F0.7571945046999277
ssV\u7f8e\u672f\u5b66\u9662
p1002
(dp1003
g108
F0.47690058479532166
ssV\u6750\u6599\u5b66\u9662
p1004
(dp1005
g108
F0.890519877675841
ssV\u5316\u5b66\u7cfb
p1006
g432
sV\u7535\u5b50\u7cfb
p1007
g491
sg473
g549
sV\u516c\u7ba1\u5b66\u9662
p1008
(dp1009
g108
F0.13893557422969188
sssg54
(dp1010
g12
g115
sg14
g143
sg16
g198
sg18
g258
sg358
g324
sg351
g379
sg24
g434
sg527
g492
sg579
g551
sg302
g595
sg36
g725
sg309
g762
sg674
g802
sg833
g685
sg834
g874
sg837
g934
sg547
g966
sV\u6559\u7814\u9662
p1011
(dp1012
g108
F32.42603550295858
ssg56
(dp1013
g108
F1.2728689108779605
ssV\u73af\u5883\u5b66\u9662
p1014
(dp1015
g108
F1.1332780191707243
ssg62
(dp1016
g108
F2.623849370248786
ssg64
(dp1017
g108
F0.3606107093286581
ssg807
(dp1018
g108
F0.9865355735537615
ssg206
(dp1019
g108
F0.7968441814595661
ssg504
(dp1020
g108
F0.9988665180972873
ssg72
(dp1021
g108
F3.0008044477019613
ssg391
(dp1022
g108
F0.4160920051608311
ssg777
(dp1023
g108
F1.3208675040658848
ssg78
(dp1024
g108
F0.9738577941604423
ssV\u836f\u5b66\u9662
p1025
(dp1026
g108
F0.03091715976331361
ssg84
(dp1027
g108
F0.5741021054080089
ssg399
(dp1028
g108
F1.2930152245783233
ssg190
g841
sg571
(dp1029
g108
F2.2250178911172784
ssg88
(dp1030
g108
F1.0325780755078109
ssg224
(dp1031
g108
F0.9690027685793388
ssV\u65b0\u95fb\u5b66\u9662
p1032
(dp1033
g108
F1.4118470446013869
ssV\u5916\u6587\u7cfb
p1034
(dp1035
g108
F0.5977810650887574
ssg98
(dp1036
g108
F1.9021730704632955
sssg56
(dp1037
g14
g144
sg16
g199
sg18
g259
sg358
g325
sg469
(dp1038
g108
F0.5842956537453692
ssg24
g436
sg527
g494
sg579
g552
sg302
g597
sg36
g727
sg32
g641
sg309
g763
sg674
g803
sg833
g686
sg834
g876
sg317
g907
sg837
g935
sg547
g968
sg52
g1009
sg840
g1013
sV\u516c\u7ba1\u5b66\u9662
p1039
(dp1040
g108
F9.579831932773109
ssV\u73af\u5883\u5b66\u9662
p1041
(dp1042
g108
F0.5714750844987442
ssg62
(dp1043
g108
F1.212761895094535
ssg498
(dp1044
g108
F0.9802676626206038
ssV\u5316\u5de5\u7cfb
p1045
(dp1046
g108
F0.5218833737399515
ssg206
(dp1047
g108
F0.3627865347322361
ssg70
(dp1048
g108
F1.0462821492233256
ssg72
(dp1049
g108
F1.2288329228972557
ssV\u6570\u5b66\u7cfb
p1050
(dp1051
g108
F0.22961816305469557
ssV\u7f8e\u672f\u5b66\u9662
p1052
(dp1053
g108
F0.5968352253181974
ssg78
(dp1054
g108
F1.3197410111585617
ssg1025
(dp1055
g108
F0.19460784313725488
ssg84
(dp1056
g108
F0.3165917529802619
ssV\u5de5\u7269\u7cfb
p1057
(dp1058
g108
F0.5267551860601892
ssV\u6c34\u5229\u7cfb
p1059
g842
sV\u5efa\u7b51\u5b66\u9662
p1060
(dp1061
g108
F0.7953446865471853
ssg88
(dp1062
g108
F0.4469541803053796
ssg90
(dp1063
g108
F2.0056022408963585
ssg663
(dp1064
g108
F0.5655899056870455
ssg351
g380
sV\u5916\u6587\u7cfb
p1065
(dp1066
g108
F0.17205882352941176
ssg98
(dp1067
g108
F0.44695607500642176
sssg58
(dp1068
g18
g256
sg14
g141
ssg60
(dp1069
g14
g146
sg16
g201
sg18
g262
sg358
g327
sg1032
(dp1070
g108
F0.5513867396738483
ssg24
g438
sg527
g496
sg579
g553
sg302
g598
sg36
g728
sg32
g643
sg309
g765
sg674
g804
sg833
g687
sg834
g878
sg317
g909
sg837
g936
sg547
g970
sg840
g1015
sg493
g1042
sg877
(dp1071
g108
F5.302583025830258
ssg62
(dp1072
g108
F0.8123493659440477
ssg64
(dp1073
g108
F0.31493326044371556
ssg500
(dp1074
g108
F0.6302318880021772
ssg68
(dp1075
g108
F0.4084623390612604
ssg388
(dp1076
g108
F1.0692720563569271
ssg72
(dp1077
g108
F0.714741195750326
ssV\u6570\u5b66\u7cfb
p1078
(dp1079
g108
F0.2802208473212552
ssg946
(dp1080
g108
F0.6382523035756673
ssg78
(dp1081
g108
F0.45187828927469603
ssg397
(dp1082
g108
F0.5100553505535055
ssg84
(dp1083
g108
F0.31669956234446067
ssV\u5de5\u7269\u7cfb
p1084
(dp1085
g108
F0.8336069125815814
ssg135
g843
sV\u5efa\u7b51\u5b66\u9662
p1086
(dp1087
g108
F0.7569473924827744
ssg88
(dp1088
g108
F0.6019467256175979
ssg92
(dp1089
g108
F0.5667016486678629
ssg351
g382
sg862
(dp1090
g108
F0.7312203479177649
ssg98
(dp1091
g108
F0.9043705720900004
sssg62
(dp1092
g12
g109
sg14
g147
sg676
g844
sg16
g202
sg18
g263
sg358
g328
sg351
g383
sg24
g439
sg527
g497
sg579
g554
sg302
g599
sg36
g729
sg32
g644
sg309
g766
sg674
g805
sg833
g688
sg834
g879
sg317
g910
sg837
g937
sg547
g971
sg840
g1016
sg493
g1043
sg60
g1072
sg62
(dp1093
g108
F10.429680759275238
ssV\u6c7d\u8f66\u7cfb
p1094
(dp1095
g108
F0.842982988740826
ssg807
(dp1096
g108
F1.773725947456387
ssV\u7269\u7406\u7cfb
p1097
(dp1098
g108
F0.7938558200720542
ssg603
(dp1099
g108
F0.8219132032764475
ssg72
(dp1100
g108
F1.915323137718994
ssg391
(dp1101
g108
F0.781153703931961
ssg273
(dp1102
g108
F1.4437014667817083
ssg78
(dp1103
g108
F2.7269197584124245
ssg216
(dp1104
g108
F0.6207075064710957
ssg514
(dp1105
g108
F1.0066676082891437
ssg84
(dp1106
g108
F1.12853234879039
ssg282
(dp1107
g108
F1.2366639433343258
ssg88
(dp1108
g108
F1.8624452389047979
ssg90
(dp1109
g108
F3.0025884383088868
ssV\u6750\u6599\u5b66\u9662
p1110
(dp1111
g108
F1.6779539463789568
ssg866
(dp1112
g108
F2.136465436462653
ssg96
(dp1113
g108
F0.7227813385923827
ssg98
(dp1114
g108
F0.915774653901559
sssg64
(dp1115
g14
g148
sg16
g203
sg18
g264
sg358
g330
sg351
g385
sg24
g441
sg527
g499
sg579
g555
sg302
g600
sg36
g730
sg32
g646
sg309
g768
sg674
g806
sg833
g690
sg834
g880
sg317
g912
sg697
(dp1116
g108
F0.45207927225471084
ssg837
g938
sg547
g973
sg840
g1017
sg493
g1044
sg60
g1073
sg62
g1095
sV\u6c7d\u8f66\u7cfb
p1117
(dp1118
g108
F16.45925925925926
ssg769
(dp1119
g108
F0.2597466591682065
ssg771
(dp1120
g108
F0.510775074877639
ssg70
(dp1121
g108
F0.35438512105178777
ssg72
(dp1122
g108
F0.5651187945246354
ssg391
(dp1123
g108
F0.19931309755871157
ssV\u6c34\u5229\u7cfb
p1124
g845
sg78
(dp1125
g108
F0.3093098563043918
ssg567
(dp1126
g108
F0.1648148148148148
ssV\u5de5\u7269\u7cfb
p1127
(dp1128
g108
F0.5480558850665612
ssg84
(dp1129
g108
F0.470169394200402
ssV\u5efa\u7b51\u5b66\u9662
p1130
(dp1131
g108
F0.41018245384027097
ssg88
(dp1132
g108
F0.9968784274023454
ssV\u6750\u6599\u5b66\u9662
p1133
(dp1134
g108
F0.5207837807226187
ssg469
(dp1135
g108
F0.48506571087216244
ssV\u5916\u6587\u7cfb
p1136
(dp1137
g108
F0.2959876543209876
ssg98
(dp1138
g108
F0.6083346811148849
sssg66
(dp1139
g14
g149
sV\u6c34\u5229\u7cfb
p1140
g846
sg16
g205
sg18
g266
sg358
g332
sg351
g386
sg24
g442
sg527
g501
sg579
g556
sg302
g601
sg36
g732
sg32
g648
sg309
g770
sg674
g808
sg833
g691
sg834
g881
sg317
g913
sg837
g939
sg547
g975
sg52
g1001
sg840
g1018
sg493
g1046
sg60
g1074
sg62
g1096
sg689
g1119
sV\u5316\u5de5\u7cfb
p1141
(dp1142
g108
F8.073752711496747
ssg267
(dp1143
g108
F0.5425475020001969
ssg603
(dp1144
g108
F0.67157787982083
ssg72
(dp1145
g108
F2.0128349640542362
ssV\u6570\u5b66\u7cfb
p1146
(dp1147
g108
F0.474287671456298
ssg154
(dp1148
g108
F0.9005340538620593
ssg78
(dp1149
g108
F1.1298851392198002
ssg612
(dp1150
g108
F0.32603036876355745
ssV\u5de5\u7269\u7cfb
p1151
(dp1152
g108
F1.231949730201249
ssg84
(dp1153
g108
F0.4166876860212884
ssV\u5efa\u7b51\u5b66\u9662
p1154
(dp1155
g108
F0.8563690579028533
ssg88
(dp1156
g108
F0.7471130897968663
ssV\u6750\u6599\u5b66\u9662
p1157
(dp1158
g108
F0.9529662281836455
ssg295
(dp1159
g108
F1.291600774380146
ssV\u5916\u6587\u7cfb
p1160
(dp1161
g108
F0.4649907034397273
ssg98
(dp1162
g108
F0.8627027504917795
sssg68
(dp1163
g14
g150
sg16
g207
sg18
g268
sg358
g333
sg351
g387
sg24
g444
sg527
g503
sg579
g557
sg302
g602
sg36
g733
sg32
g650
sg309
g772
sg674
g810
sg833
g692
sg834
g883
sg837
g941
sg547
g977
sg840
g1019
sg493
g1047
sg60
g1075
sg62
g1098
sg689
g1120
sg331
g1143
sV\u7269\u7406\u7cfb
p1164
(dp1165
g108
F9.85404339250493
ssg70
(dp1166
g108
F0.5010374241143472
ssg72
(dp1167
g108
F1.4280138484182174
ssg561
(dp1168
g108
F1.3011152140706796
ssV\u7f8e\u672f\u5b66\u9662
p1169
(dp1170
g108
F0.5220249835634451
ssg78
(dp1171
g108
F1.2711384874058265
ssg397
(dp1172
g108
F0.8900887573964497
ssg84
(dp1173
g108
F1.779551396724921
ssV\u5de5\u7269\u7cfb
p1174
(dp1175
g108
F1.1780482497701223
ssg135
g847
sV\u5efa\u7b51\u5b66\u9662
p1176
(dp1177
g108
F0.6618840655600355
ssg88
(dp1178
g108
F0.7267997465999919
ssg92
(dp1179
g108
F1.4315256138827064
ssV\u65b0\u95fb\u5b66\u9662
p1180
(dp1181
g108
F0.4287841191066998
ssg791
(dp1182
g108
F0.5710129613975768
ssg98
(dp1183
g108
F1.0592491150099481
sssg70
(dp1184
g14
g151
sg16
g208
sg18
g269
sg358
g335
sg351
g389
sg24
g446
sg527
g505
sg579
g559
sg302
g604
sg36
g735
sg32
g652
sg309
g773
sg674
g811
sg833
g693
sg834
g884
sg317
g915
sg837
g943
sg547
g979
sg840
g1020
sg493
g1048
sg60
g1076
sg62
g1099
sg689
g1121
sg331
g1144
sg68
g1166
sg558
(dp1185
g108
F30.363636363636363
ssg72
(dp1186
g108
F0.7944736532349825
ssg606
(dp1187
g108
F0.14012303485987695
ssg697
(dp1188
g108
F1.017088174982912
ssg78
(dp1189
g108
F0.2631999148392591
ssV\u836f\u5b66\u9662
p1190
(dp1191
g108
F0.19772727272727272
ssg84
(dp1192
g108
F0.3739555018624786
ssg399
(dp1193
g108
F1.4676249017886027
ssg616
g848
sg571
(dp1194
g108
F0.6563134505612382
ssg88
(dp1195
g108
F1.011012336183179
ssg405
(dp1196
g108
F0.44210055999046827
ssV\u65b0\u95fb\u5b66\u9662
p1197
(dp1198
g108
F0.464167015779919
ssg96
(dp1199
g108
F0.20454545454545453
ssg98
(dp1200
g108
F0.4420215883097979
sssg72
(dp1201
g14
g152
sg16
g209
sg18
g270
sg358
g336
sg351
g390
sg24
g447
sg527
g506
sg579
g560
sg302
g605
sg36
g736
sg32
g653
sg309
g774
sg674
g812
sg833
g694
sg834
g885
sg317
g916
sg837
g944
sg547
g980
sg840
g1021
sg493
g1049
sg60
g1077
sg62
g1100
sg689
g1122
sg331
g1145
sg68
g1167
sg558
g1186
sg72
(dp1202
g108
F20.12084592145015
ssg391
(dp1203
g108
F1.754900847284374
ssg946
(dp1204
g108
F1.6824702743767777
ssg78
(dp1205
g108
F2.339458174434154
ssg700
(dp1206
g108
F0.7157854984894261
ssg84
(dp1207
g108
F1.2874891683645986
ssg1084
(dp1208
g108
F1.799593596456333
ssg190
g849
sV\u5efa\u7b51\u5b66\u9662
p1209
(dp1210
g108
F1.683822153303211
ssg88
(dp1211
g108
F1.0456200235360509
ssg349
(dp1212
g108
F1.886826131544666
ssg295
(dp1213
g108
F2.449283695546243
ssg862
(dp1214
g108
F2.378377211911955
ssg98
(dp1215
g108
F1.106384428994226
sssg74
(dp1216
g14
g153
sg16
g211
sg18
g272
sg358
g338
sg351
g392
sg24
g449
sg527
g508
sg579
g562
sg302
g607
sg36
g737
sg309
g776
sg674
g814
sg833
g696
sg834
g887
sg317
g918
sg837
g945
sg547
g981
sg840
g1022
sg493
g1051
sg60
g1079
sg62
g1101
sg689
g1123
sg331
g1147
sg68
g1168
sg558
g1187
sg72
g1203
sg775
(dp1217
g108
F4.586466165413534
ssg1052
(dp1218
g108
F0.4594820384294068
ssg78
(dp1219
g108
F0.5619376309626525
ssg890
(dp1220
g108
F0.5176691729323308
ssg84
(dp1221
g108
F2.2562219502243983
ssV\u5de5\u7269\u7cfb
p1222
(dp1223
g108
F0.7643485939046906
ssg1124
g850
sV\u5efa\u7b51\u5b66\u9662
p1224
(dp1225
g108
F0.7013995164903409
ssg88
(dp1226
g108
F0.5010961344134824
ssV\u6750\u6599\u5b66\u9662
p1227
(dp1228
g108
F0.6321514796164724
ssV\u65b0\u95fb\u5b66\u9662
p1229
(dp1230
g108
F0.4432452097986903
ssV\u5916\u6587\u7cfb
p1231
(dp1232
g108
F0.505827067669173
ssg98
(dp1233
g108
F0.8448304166529862
sssg76
(dp1234
g12
g116
sg14
g155
sg16
g213
sg18
g274
sg358
g340
sg351
g394
sg24
g450
sg527
g510
sg579
g564
sg302
g609
sg36
g739
sg32
g655
sg309
g778
sg674
g815
sg833
g698
sg834
g888
sg837
g947
sg547
g983
sg52
g1003
sg840
g1023
sg493
g1053
sg60
g1080
sg62
g1102
sg689
g1116
sg331
g1148
sg68
g1170
sg558
g1188
sg72
g1204
sg775
g1218
sg738
(dp1235
g108
F7.04093567251462
ssg78
(dp1236
g108
F0.7147445115521043
ssV\u836f\u5b66\u9662
p1237
(dp1238
g108
F0.2910818713450293
ssg84
(dp1239
g108
F0.2948456412348701
ssg279
(dp1240
g108
F0.9237841043890866
ssV\u6c34\u5229\u7cfb
p1241
g851
sg282
(dp1242
g108
F1.779770222015215
ssg88
(dp1243
g108
F0.7778976674792524
ssg90
(dp1244
g108
F5.007309941520468
ssg349
(dp1245
g108
F0.9099307902784484
ssg713
(dp1246
g108
F1.5100358422939069
ssg862
(dp1247
g108
F0.39260651629072685
ssg98
(dp1248
g108
F0.7381508720855998
sssg78
(dp1249
g14
g156
sV\u6c34\u5229\u7cfb
p1250
g852
sg16
g215
sg18
g276
sg358
g341
sV\u65b0\u95fb\u5b66\u9662
p1251
(dp1252
g108
F0.848475233562489
ssg24
g452
sg527
g512
sg579
g566
sg302
g611
sg36
g740
sg32
g656
sg309
g779
sg674
g817
sg833
g684
sg834
g889
sg837
g949
sg547
g985
sV\u6559\u7814\u9662
p1253
g1024
sg596
g1054
sV\u73af\u5883\u5b66\u9662
p1254
g1081
sg62
g1103
sg645
g1125
sV\u5316\u5de5\u7cfb
p1255
g1149
sg649
g1171
sV\u6838\u7814\u9662
p1256
g1189
sg72
g1205
sV\u6570\u5b66\u7cfb
p1257
g1219
sV\u7f8e\u672f\u5b66\u9662
p1258
g1236
sg78
(dp1259
g108
F40.540983606557376
ssV\u836f\u5b66\u9662
p1260
(dp1261
g108
F0.5975409836065574
ssV\u5de5\u7269\u7cfb
p1262
(dp1263
g108
F1.656029403185345
ssg84
(dp1264
g108
F0.2870758673274876
ssV\u5efa\u7b51\u5b66\u9662
p1265
(dp1266
g108
F1.4700904299047344
ssg88
(dp1267
g108
F0.5656297845326562
ssg663
(dp1268
g108
F1.0332531207700406
ssg351
g396
sV\u5916\u6587\u7cfb
p1269
(dp1270
g108
F0.29420374707259955
ssg98
(dp1271
g108
F1.5540243873338584
sssg80
(dp1272
g14
g157
sg16
g217
sg18
g278
sg358
g342
sg351
g398
sg24
g454
sg527
g513
sg579
g568
sg302
g613
sg36
g741
sg32
g657
sg309
g780
sg674
g818
sg833
g701
sg834
g891
sg837
g950
sg840
g1026
sg493
g1055
sg60
g1082
sg62
g1104
sg689
g1126
sg331
g1150
sg68
g1172
sg558
g1191
sg72
g1206
sg775
g1220
sg697
g1238
sg78
g1261
sg853
(dp1273
g108
F0.65
ssg84
(dp1274
g108
F0.1310077519379845
ssV\u5de5\u7269\u7cfb
p1275
(dp1276
g108
F0.7230427046263346
ssV\u6c34\u5229\u7cfb
p1277
g854
sg953
(dp1278
g108
F0.503023598820059
ssg88
(dp1279
g108
F2.2913439635535306
ssV\u6750\u6599\u5b66\u9662
p1280
(dp1281
g108
F0.8318807339449541
ssV\u65b0\u95fb\u5b66\u9662
p1282
(dp1283
g108
F0.05430107526881721
ssg862
(dp1284
g108
F0.05714285714285715
ssg98
(dp1285
g108
F0.7672125181950509
sssg82
(dp1286
g12
g110
sg14
g159
sg1124
g855
sg16
g219
sg18
g280
sg358
g344
sg351
g400
sg24
g457
sg527
g515
sg579
g569
sg302
g615
sg36
g743
sg32
g659
sg309
g782
sg674
g821
sg833
g702
sg834
g893
sg317
g920
sg837
g952
sg547
g988
sg840
g1028
sg493
g1058
sg60
g1085
sg62
g1105
sg689
g1128
sg331
g1152
sg68
g1175
sg558
g1193
sg72
g1208
sg775
g1223
sg697
g1240
sg78
g1263
sg853
g1276
sg399
(dp1287
g108
F5.298932384341637
ssg84
(dp1288
g108
F0.4765648707550553
ssg282
(dp1289
g108
F0.8591314206531666
ssg88
(dp1290
g108
F0.9615715107936997
ssg405
(dp1291
g108
F1.0083678866433772
ssg94
(dp1292
g108
F0.7309608540925268
ssg862
(dp1293
g108
F0.502974072191154
ssg98
(dp1294
g108
F0.8572653291685444
sssg84
(dp1295
g14
g160
sg16
g220
sg18
g281
sg358
g345
sg351
g401
sg24
g455
sg527
g516
sg579
g570
sg302
g614
sg36
g742
sg32
g660
sg309
g781
sg674
g819
sg833
g703
sg834
g892
sg837
g951
sg547
g986
sg840
g1027
sg493
g1056
sg60
g1083
sg62
g1106
sg689
g1129
sg331
g1153
sg68
g1173
sg558
g1192
sg72
g1207
sg775
g1221
sg697
g1239
sg78
g1264
sg853
g1274
sg84
(dp1296
g108
F6.775193798449612
ssg279
g1288
sV\u6c34\u5229\u7cfb
p1297
g856
sV\u5efa\u7b51\u5b66\u9662
p1298
(dp1299
g108
F0.6089730397201071
ssg88
(dp1300
g108
F0.4011936925005739
ssg956
(dp1301
g108
F0.6614892255173885
ssV\u65b0\u95fb\u5b66\u9662
p1302
(dp1303
g108
F0.6733683420855214
ssg862
(dp1304
g108
F0.4869047619047619
ssg98
(dp1305
g108
F0.7273958227548153
sssg86
(dp1306
g14
g161
sg135
g857
sg16
g221
sg18
g283
sg358
g347
sg351
g402
sg24
g466
sg527
g518
sg579
g572
sg302
g618
sg36
g744
sg32
g666
sg309
g785
sg674
g824
sg833
g704
sg834
g894
sg317
g923
sg837
g954
sg547
g990
sg840
g1029
sg493
g1061
sg60
g1087
sg62
g1107
sg689
g1131
sg331
g1155
sg68
g1177
sg558
g1194
sg72
g1210
sg775
g1225
sg697
g1242
sg78
g1266
sg853
g1278
sg514
g1289
sg84
g1299
sV\u5efa\u7b51\u5b66\u9662
p1307
(dp1308
g108
F8.84070796460177
ssg88
(dp1309
g108
F0.8518925420471574
ssg90
(dp1310
g108
F15.02212389380531
ssg349
(dp1311
g108
F0.635479418689616
ssg866
(dp1312
g108
F0.8302312303739652
ssg862
(dp1313
g108
F0.5197745469869364
ssg98
(dp1314
g108
F0.8146874315672863
sssg88
(dp1315
g14
g162
sg135
g858
sg16
g222
sg18
g284
sg358
g348
sg351
g403
sg24
g462
sg527
g519
sg579
g573
sg302
g619
sg36
g745
sg32
g661
sg309
g786
sg674
g825
sg833
g705
sg834
g895
sg317
g924
sg837
g955
sg547
g991
sg840
g1030
sg493
g1062
sg60
g1088
sg62
g1108
sg689
g1132
sg331
g1156
sg68
g1178
sg558
g1195
sg72
g1211
sg775
g1226
sg697
g1243
sg78
g1267
sg853
g1279
sg514
g1290
sg84
g1300
sg953
g1309
sg88
(dp1316
g108
F35.0250569476082
ssg405
(dp1317
g108
F1.0446427451881883
ssg958
(dp1318
g108
F0.5845543390403409
ssg862
(dp1319
g108
F0.3041653107712333
ssg98
(dp1320
g108
F0.9520446429459569
sssg90
(dp1321
g697
g1244
sg14
g163
sg16
g223
sg833
g706
sg834
g896
sg62
g1109
sg493
g1063
sg351
g404
sg527
g520
sV\u5efa\u7b51\u5b66\u9662
p1322
g1310
sg36
g746
sg32
g662
ssg92
(dp1323
g14
g164
sg135
g859
sg16
g225
sg18
g286
sg358
g350
sg351
g406
sg24
g464
sg527
g521
sg579
g574
sg302
g620
sg36
g747
sg32
g664
sg309
g788
sg674
g826
sg833
g708
sg834
g897
sg317
g926
sg837
g957
sg547
g993
sg52
g1005
sg840
g1031
sg493
g1064
sg60
g1089
sg62
g1111
sg689
g1134
sg331
g1158
sg68
g1179
sg558
g1196
sg72
g1212
sg775
g1228
sg697
g1245
sg78
g1268
sg853
g1281
sg514
g1291
sg84
g1301
sg571
g1311
sg88
g1317
sV\u6750\u6599\u5b66\u9662
p1324
(dp1325
g108
F7.060550458715596
ssg713
(dp1326
g108
F1.2075762059781
ssg862
(dp1327
g108
F0.30275229357798167
ssg98
(dp1328
g108
F1.0595302004460292
sssg94
(dp1329
g14
g165
sg135
g861
sg16
g174
sg18
g288
sg358
g296
sg351
g359
sg24
g414
sg527
g470
sg579
g526
sg302
g578
sg36
g714
sV\u65b0\u95fb\u5b66\u9662
p1330
(dp1331
g108
F12.744086021505376
ssg32
g625
sg309
g790
sg674
g795
sg833
g669
sg834
g867
sg317
g902
sg837
g959
sg547
g963
sg840
g1033
sg493
g1038
sg60
g1070
sg62
g1112
sg689
g1135
sg331
g1159
sg68
g1181
sg558
g1198
sg72
g1213
sg775
g1230
sg697
g1246
sg78
g1252
sg853
g1283
sg514
g1292
sg84
g1303
sg88
g1318
sg349
g1326
sV\u5efa\u7b51\u5b66\u9662
p1332
g1312
sg862
(dp1333
g108
F0.7839093701996928
ssg98
(dp1334
g108
F0.5805888153261023
sssg96
(dp1335
g14
g166
sg16
g229
sg18
g290
sg358
g353
sg351
g410
sg24
g461
sg527
g523
sg579
g575
sg302
g621
sg36
g749
sg309
g792
sg674
g828
sg833
g710
sg834
g898
sg317
g928
sg837
g960
sg547
g995
sg840
g1035
sg493
g1066
sg60
g1090
sg62
g1113
sg689
g1137
sg331
g1161
sg68
g1182
sg558
g1199
sg72
g1214
sg775
g1232
sg697
g1247
sg78
g1270
sV\u836f\u5b66\u9662
p1336
g1284
sg84
g1304
sg279
g1293
sg356
g863
sg1332
g1313
sg88
g1319
sV\u6750\u6599\u5b66\u9662
p1337
g1327
sV\u65b0\u95fb\u5b66\u9662
p1338
g1333
sV\u5916\u6587\u7cfb
p1339
(dp1340
g108
F7.2785714285714285
ssg98
(dp1341
g108
F0.5680546891245581
sssg98
(dp1342
g14
g167
sg135
g864
sg16
g230
sg18
g291
sg358
g354
sg351
g411
sg24
g467
sg527
g524
sg579
g576
sg302
g622
sg36
g750
sg32
g667
sg309
g793
sg674
g829
sg833
g711
sg834
g899
sg317
g929
sg837
g961
sg547
g996
sg840
g1036
sg493
g1067
sg60
g1091
sg62
g1114
sg689
g1138
sg331
g1162
sg68
g1183
sg558
g1200
sg72
g1215
sg775
g1233
sg697
g1248
sg78
g1271
sg853
g1285
sg514
g1294
sg84
g1305
sg346
g1314
sg88
g1320
sg349
g1328
sg866
g1334
sg862
g1341
sg98
(dp1343
g108
F4.596797671033479
ssssS'adjlist_outer_dict_factory'
p1344
g7
sb.