ccopy_reg
_reconstructor
p0
(cnetworkx.classes.graph
Graph
p1
c__builtin__
object
p2
Ntp3
Rp4
(dp5
S'adjlist_inner_dict_factory'
p6
c__builtin__
dict
p7
sS'node_dict_factory'
p8
g7
sS'root_graph'
p9
g4
sS'edge_attr_dict_factory'
p10
g7
sS'_node'
p11
(dp12
V\u81ea\u52a8\u5316\u7cfb
p13
(dp14
sV\u6c34\u5229\u7cfb
p15
(dp16
sS'\xe5\xbe\xae\xe7\xba\xb3\xe7\x94\xb5\xe5\xad\x90\xe7\xb3\xbb'
p17
(dp18
sV\u7cbe\u4eea\u7cfb
p19
(dp20
sS'\xe7\x83\xad\xe8\x83\xbd\xe7\xb3\xbb'
p21
(dp22
sV\u5de5\u4e1a\u5de5\u7a0b\u7cfb
p23
(dp24
sV\u65b0\u95fb\u5b66\u9662
p25
(dp26
sV\u5316\u5b66\u7cfb
p27
(dp28
sV\u7535\u5b50\u7cfb
p29
(dp30
sV\u7535\u673a\u7cfb
p31
(dp32
sS'\xe8\xae\xa1\xe7\xae\x97\xe6\x9c\xba\xe7\xb3\xbb'
p33
(dp34
sV\u5730\u5b66\u7cfb
p35
(dp36
sV\u822a\u9662
p37
(dp38
sV\u8f6f\u4ef6\u5b66\u9662
p39
(dp40
sV\u571f\u6728\u7cfb
p41
(dp42
sV\u6cd5\u5b66\u9662
p43
(dp44
sS'\xe6\x9c\xba\xe6\xa2\xb0\xe7\xb3\xbb'
p45
(dp46
sV\u751f\u547d\u5b66\u9662
p47
(dp48
sV\u6559\u7814\u9662
p49
(dp50
sV\u516c\u7ba1\u5b66\u9662
p51
(dp52
sV\u73af\u5883\u5b66\u9662
p53
(dp54
sS'\xe7\xbb\x8f\xe7\xae\xa1\xe5\xad\xa6\xe9\x99\xa2'
p55
(dp56
sV\u6c7d\u8f66\u7cfb
p57
(dp58
sV\u5316\u5de5\u7cfb
p59
(dp60
sS'\xe4\xba\xa4\xe5\x8f\x89\xe4\xbf\xa1\xe6\x81\xaf\xe7\xa0\x94\xe7\xa9\xb6\xe9\x99\xa2'
p61
(dp62
sV\u6838\u7814\u9662
p63
(dp64
sS'\xe4\xba\xba\xe6\x96\x87\xe5\xad\xa6\xe9\x99\xa2'
p65
(dp66
sV\u6570\u5b66\u7cfb
p67
(dp68
sV\u7269\u7406\u7cfb
p69
(dp70
sV\u7f8e\u672f\u5b66\u9662
p71
(dp72
sV\u9a6c\u514b\u601d\u4e3b\u4e49\u5b66\u9662
p73
(dp74
sV\u5de5\u7269\u7cfb
p75
(dp76
sS'\xe5\xbb\xba\xe7\xad\x91\xe5\xad\xa6\xe9\x99\xa2'
p77
(dp78
sS'\xe5\x8c\xbb\xe5\xad\xa6\xe9\x99\xa2'
p79
(dp80
sV\u6750\u6599\u5b66\u9662
p81
(dp82
sV\u793e\u79d1\u5b66\u9662
p83
(dp84
ssS'graph'
p85
(dp86
sS'_adj'
p87
(dp88
g13
(dp89
g21
(dp90
S'weight'
p91
F0.10977402380331053
ssg39
(dp92
g91
F0.10307260427372716
ssg57
(dp93
g91
F0.10684342025909954
sssg15
(dp94
g35
(dp95
g91
F0.10181822203194092
sssg17
(dp96
V\u7535\u5b50\u7cfb
p97
(dp98
g91
F0.1666070750179996
ssg39
(dp99
g91
F0.10654227521353127
sssg19
(dp100
g39
(dp101
g91
F0.16969944896452308
sssg21
(dp102
g13
g90
sV\u6838\u7814\u9662
p103
(dp104
g91
F0.25685439094180584
ssV\u5de5\u7269\u7cfb
p105
(dp106
g91
F0.1063788151261242
ssV\u793e\u79d1\u5b66\u9662
p107
(dp108
g91
F0.10034946286752897
sssg23
(dp109
g55
(dp110
g91
F0.12070913126550953
ssV\u571f\u6728\u7cfb
p111
(dp112
g91
F0.11941074370865465
sssg25
(dp113
V\u793e\u79d1\u5b66\u9662
p114
(dp115
g91
F0.12265309265516844
ssV\u6cd5\u5b66\u9662
p116
(dp117
g91
F0.10956595214617373
ssg65
(dp118
g91
F0.1520625381165227
sssg27
(dp119
V\u751f\u547d\u5b66\u9662
p120
(dp121
g91
F0.14949945224909628
ssV\u5316\u5de5\u7cfb
p122
(dp123
g91
F0.20439155364361083
ssV\u7269\u7406\u7cfb
p124
(dp125
g91
F0.11931692775401395
sssg29
(dp126
g17
g98
sg39
(dp127
g91
F0.14133583787884263
ssg55
(dp128
g91
F0.11608910739463962
ssV\u6750\u6599\u5b66\u9662
p129
(dp130
g91
F0.10556417624970114
sssg31
(dp131
sg33
(dp132
V\u8f6f\u4ef6\u5b66\u9662
p133
(dp134
g91
F0.11013455444421616
sssg35
(dp135
V\u6c34\u5229\u7cfb
p136
g95
ssg37
(dp137
g61
(dp138
g91
F0.10097811886105461
sssg39
(dp139
g13
g92
sg17
g99
sg19
g101
sV\u7535\u5b50\u7cfb
p140
g127
sg33
g134
sg77
(dp141
g91
F0.17128799215134427
sssg41
(dp142
V\u5de5\u4e1a\u5de5\u7a0b\u7cfb
p143
g112
sg77
(dp144
g91
F0.19210154285108566
ssg55
(dp145
g91
F0.14850392704862775
ssg114
(dp146
g91
F0.11047402718079721
sssg43
(dp147
V\u65b0\u95fb\u5b66\u9662
p148
g117
sg55
(dp149
g91
F0.10881805832071767
ssg65
(dp150
g91
F0.13793165465032964
sssg45
(dp151
sg47
(dp152
V\u5316\u5b66\u7cfb
p153
g121
sg79
(dp154
g91
F0.39126255227798884
sssg49
(dp155
sg51
(dp156
g83
(dp157
g91
F0.10955946139383543
sssg53
(dp158
sg55
(dp159
g143
g110
sg140
g128
sV\u571f\u6728\u7cfb
p160
g145
sg116
g149
sg65
(dp161
g91
F0.11050570274708206
ssV\u9a6c\u514b\u601d\u4e3b\u4e49\u5b66\u9662
p162
(dp163
g91
F0.10841942613039708
ssV\u793e\u79d1\u5b66\u9662
p164
(dp165
g91
F0.16089602517199922
sssg57
(dp166
g13
g93
ssg59
(dp167
g153
g123
ssg61
(dp168
V\u822a\u9662
p169
g138
sV\u6570\u5b66\u7cfb
p170
(dp171
g91
F0.12395486890465346
sssg63
(dp172
g21
g104
ssg65
(dp173
g148
g118
sg116
g150
sg77
(dp174
g91
F0.1076661197760406
ssg55
g161
sg69
(dp175
g91
F0.10442716964456095
ssV\u6570\u5b66\u7cfb
p176
(dp177
g91
F0.1318574437977423
ssV\u793e\u79d1\u5b66\u9662
p178
(dp179
g91
F0.18542551549892303
sssg67
(dp180
g65
g177
sg61
g171
ssg69
(dp181
g153
g125
sg65
g175
sg81
(dp182
g91
F0.10466511682841463
ssV\u793e\u79d1\u5b66\u9662
p183
(dp184
g91
F0.10188909224871708
sssg71
(dp185
g77
(dp186
g91
F0.1508874411640874
ssV\u793e\u79d1\u5b66\u9662
p187
(dp188
g91
F0.12379265205288954
sssg73
(dp189
g55
g163
ssg75
(dp190
g21
g106
ssg77
(dp191
g133
g141
sg65
g174
sV\u7f8e\u672f\u5b66\u9662
p192
g186
sV\u571f\u6728\u7cfb
p193
g144
sV\u793e\u79d1\u5b66\u9662
p194
(dp195
g91
F0.10290746701245643
sssg79
(dp196
V\u751f\u547d\u5b66\u9662
p197
g154
ssg81
(dp198
g140
g130
sg69
g182
ssg83
(dp199
g148
g115
sg21
g108
sg160
g146
sg77
g195
sV\u516c\u7ba1\u5b66\u9662
p200
g157
sg55
g165
sg69
g184
sg65
g179
sV\u7f8e\u672f\u5b66\u9662
p201
g188
sssS'adjlist_outer_dict_factory'
p202
g7
sb.