(dp0
I1
V\u5168\u7403\u521b\u65b0\u5b66\u9662
p1
sI2
V\u81ea\u52a8\u5316\u7cfb
p2
sI3
V\u7cbe\u4eea\u7cfb
p3
sI4
V\u751f\u533b\u7cfb
p4
sI5
V\u5de5\u4e1a\u5de5\u7a0b\u7cfb
p5
sI6
V\u793e\u79d1\u5b66\u9662
p6
sI7
V\u5316\u5b66\u7cfb
p7
sI8
V\u7535\u5b50\u7cfb
p8
sI9
V\u70ed\u80fd\u7cfb
p9
sI10
V\u7535\u673a\u7cfb
p10
sI11
S'\xe8\xae\xa1\xe7\xae\x97\xe6\x9c\xba\xe7\xb3\xbb'
p11
sI12
V\u571f\u6728\u7cfb
p12
sI13
V\u5730\u5b66\u7cfb
p13
sI14
V\u822a\u9662
p14
sI15
V\u7ecf\u7ba1\u5b66\u9662
p15
sI16
V\u673a\u68b0\u7cfb
p16
sI17
V\u8f6f\u4ef6\u5b66\u9662
p17
sI18
V\u6c34\u5229\u7cfb
p18
sI19
V\u6cd5\u5b66\u9662
p19
sI20
V\u65b0\u96c5\u4e66\u9662
p20
sI21
V\u4eba\u6587\u5b66\u9662
p21
sI22
V\u751f\u547d\u5b66\u9662
p22
sI23
V\u9ad8\u7814\u9662
p23
sI24
V\u4e2d\u6587\u7cfb
p24
sI25
V\u9a6c\u514b\u601d\u4e3b\u4e49\u5b66\u9662
p25
sI26
V\u6559\u7814\u9662
p26
sI27
V\u516c\u7ba1\u5b66\u9662
p27
sI28
V\u82cf\u4e16\u6c11\u4e66\u9662
p28
sI29
V\u5fae\u7eb3\u7535\u5b50\u7cfb
p29
sI30
V\u73af\u5883\u5b66\u9662
p30
sI31
V\u6c7d\u8f66\u7cfb
p31
sI32
V\u5316\u5de5\u7cfb
p32
sI33
V\u7269\u7406\u7cfb
p33
sI34
V\u673a\u68b0\u5b66\u9662
p34
sI35
V\u6838\u7814\u9662
p35
sI36
V\u6570\u5b66\u7cfb
p36
sI37
V\u7f8e\u672f\u5b66\u9662
p37
sI38
V\u6e05\u534e-\u4f2f\u514b\u5229\u6df1\u5733\u5b66\u9662
p38
sI39
V\u836f\u5b66\u9662
p39
sI40
V\u533b\u5b66\u9662
p40
sI41
V\u80fd\u52a8\u7cfb
p41
sI42
V\u5de5\u7269\u7cfb
p42
sI43
S'\xe4\xba\xa4\xe5\x8f\x89\xe4\xbf\xa1\xe6\x81\xaf\xe7\xa0\x94\xe7\xa9\xb6\xe9\x99\xa2'
p43
sI44
V\u5916\u6587\u7cfb
p44
sI45
V\u8bbe\u8ba1\u9662
p45
sI46
V\u6750\u6599\u5b66\u9662
p46
sI47
V\u91d1\u878d\u5b66\u9662
p47
sI48
V\u65b0\u95fb\u5b66\u9662
p48
sI49
V\u5efa\u7b51\u5b66\u9662
p49
sI50
V\u5fae\u7535\u5b50\u6240
p50
sI51
V\u5efa\u7ba1\u7cfb
p51
s.